///////////////////////////////////////////////////////////////////////////////
//                                                                            /
// IAR C/C++ Compiler V8.10.1.40194/W32 for 8051        13/Jun/2022  16:49:10 /
// Copyright 2004-2011 IAR Systems AB.                                        /
//                                                                            /
//    Core               =  plain                                             /
//    Code model         =  banked                                            /
//    Data model         =  large                                             /
//    Calling convention =  xdata reentrant                                   /
//    Constant location  =  data_rom                                          /
//    Dptr setup         =  1,16                                              /
//    Source file        =  C:\Texas Instruments\ZStack-CC2530-2.5.1a\Project /
//                          s\zstack\Samples\GenericApp\Source\GenericAppCoor /
//                          d.c                                               /
//    Command line       =  -f "C:\Texas Instruments\ZStack-CC2530-2.5.1a\Pro /
//                          jects\zstack\Samples\GenericApp\CC2530DB\..\..\.. /
//                          \Tools\CC2530DB\f8wCoord.cfg" (-DCPU32MHZ         /
//                          -DROOT=__near_func -DMAC_CFG_APP_PENDING_QUEUE=TR /
//                          UE -DMAC_CFG_TX_DATA_MAX=5 -DMAC_CFG_TX_MAX=8     /
//                          -DMAC_CFG_RX_MAX=5 -DZDO_COORDINATOR -DRTR_NWK)   /
//                          -f "C:\Texas Instruments\ZStack-CC2530-2.5.1a\Pro /
//                          jects\zstack\Samples\GenericApp\CC2530DB\..\..\.. /
//                          \Tools\CC2530DB\f8wConfig.cfg" (-DZIGBEEPRO       /
//                          -DSECURE=0 -DZG_SECURE_DYNAMIC=0 -DREFLECTOR      /
//                          -DDEFAULT_CHANLIST=0x00000800                     /
//                          -DZDAPP_CONFIG_PAN_ID=0xFFFF                      /
//                          -DNWK_START_DELAY=100 -DEXTENDED_JOINING_RANDOM_M /
//                          ASK=0x007F -DBEACON_REQUEST_DELAY=100             /
//                          -DBEACON_REQ_DELAY_MASK=0x00FF                    /
//                          -DLINK_STATUS_JITTER_MASK=0x007F                  /
//                          -DROUTE_EXPIRY_TIME=30 -DAPSC_ACK_WAIT_DURATION_P /
//                          OLLED=3000 -DNWK_INDIRECT_MSG_TIMEOUT=7           /
//                          -DMAX_RREQ_ENTRIES=8 -DAPSC_MAX_FRAME_RETRIES=3   /
//                          -DNWK_MAX_DATA_RETRIES=2                          /
//                          -DMAX_POLL_FAILURE_RETRIES=2 -DMAX_BCAST=9        /
//                          -DAPS_MAX_GROUPS=16 -DMAX_RTG_ENTRIES=40          /
//                          -DNWK_MAX_BINDING_ENTRIES=4                       /
//                          -DMAX_BINDING_CLUSTER_IDS=4                       /
//                          "-DDEFAULT_KEY={0x01, 0x03, 0x05, 0x07, 0x09,     /
//                          0x0B, 0x0D, 0x0F, 0x00, 0x02, 0x04, 0x06, 0x08,   /
//                          0x0A, 0x0C, 0x0D}" -DMAC_MAX_FRAME_SIZE=116       /
//                          -DZDNWKMGR_MIN_TRANSMISSIONS=20 "-DCONST=const    /
//                          __code" -DGENERIC=__generic                       /
//                          -DRFD_RCVC_ALWAYS_ON=FALSE -DPOLL_RATE=1000       /
//                          -DQUEUED_POLL_RATE=100 -DRESPONSE_POLL_RATE=100)  /
//                          -DREJOIN_POLL_RATE=440 "C:\Texas                  /
//                          Instruments\ZStack-CC2530-2.5.1a\Projects\zstack\ /
//                          Samples\GenericApp\Source\GenericAppCoord.c" -D   /
//                          ZTOOL_P1 -D xMT_TASK -D MT_SYS_FUNC -D            /
//                          MT_ZDO_FUNC -D xLCD_SUPPORTED=DEBUG -lC           /
//                          "C:\Texas Instruments\ZStack-CC2530-2.5.1a\Projec /
//                          ts\zstack\Samples\GenericApp\CC2530DB\Coordinator /
//                          EB\List\" -lA "C:\Texas                           /
//                          Instruments\ZStack-CC2530-2.5.1a\Projects\zstack\ /
//                          Samples\GenericApp\CC2530DB\CoordinatorEB\List\"  /
//                          --diag_suppress Pe001,Pa010 -o "C:\Texas          /
//                          Instruments\ZStack-CC2530-2.5.1a\Projects\zstack\ /
//                          Samples\GenericApp\CC2530DB\CoordinatorEB\Obj\"   /
//                          -e --no_code_motion --debug --core=plain          /
//                          --dptr=16,1 --data_model=large                    /
//                          --code_model=banked --calling_convention=xdata_re /
//                          entrant --place_constants=data_rom                /
//                          --nr_virtual_regs 16 -I "C:\Texas                 /
//                          Instruments\ZStack-CC2530-2.5.1a\Projects\zstack\ /
//                          Samples\GenericApp\CC2530DB\" -I "C:\Texas        /
//                          Instruments\ZStack-CC2530-2.5.1a\Projects\zstack\ /
//                          Samples\GenericApp\CC2530DB\..\Source\" -I        /
//                          "C:\Texas Instruments\ZStack-CC2530-2.5.1a\Projec /
//                          ts\zstack\Samples\GenericApp\CC2530DB\..\..\..\ZM /
//                          ain\TI2530DB\" -I "C:\Texas                       /
//                          Instruments\ZStack-CC2530-2.5.1a\Projects\zstack\ /
//                          Samples\GenericApp\CC2530DB\..\..\..\..\..\Compon /
//                          ents\hal\include\" -I "C:\Texas                   /
//                          Instruments\ZStack-CC2530-2.5.1a\Projects\zstack\ /
//                          Samples\GenericApp\CC2530DB\..\..\..\..\..\Compon /
//                          ents\hal\target\CC2530EB\" -I "C:\Texas           /
//                          Instruments\ZStack-CC2530-2.5.1a\Projects\zstack\ /
//                          Samples\GenericApp\CC2530DB\..\..\..\..\..\Compon /
//                          ents\mac\include\" -I "C:\Texas                   /
//                          Instruments\ZStack-CC2530-2.5.1a\Projects\zstack\ /
//                          Samples\GenericApp\CC2530DB\..\..\..\..\..\Compon /
//                          ents\mac\high_level\" -I "C:\Texas                /
//                          Instruments\ZStack-CC2530-2.5.1a\Projects\zstack\ /
//                          Samples\GenericApp\CC2530DB\..\..\..\..\..\Compon /
//                          ents\mac\low_level\srf04\" -I "C:\Texas           /
//                          Instruments\ZStack-CC2530-2.5.1a\Projects\zstack\ /
//                          Samples\GenericApp\CC2530DB\..\..\..\..\..\Compon /
//                          ents\mac\low_level\srf04\single_chip\" -I         /
//                          "C:\Texas Instruments\ZStack-CC2530-2.5.1a\Projec /
//                          ts\zstack\Samples\GenericApp\CC2530DB\..\..\..\.. /
//                          \..\Components\mt\" -I "C:\Texas                  /
//                          Instruments\ZStack-CC2530-2.5.1a\Projects\zstack\ /
//                          Samples\GenericApp\CC2530DB\..\..\..\..\..\Compon /
//                          ents\osal\include\" -I "C:\Texas                  /
//                          Instruments\ZStack-CC2530-2.5.1a\Projects\zstack\ /
//                          Samples\GenericApp\CC2530DB\..\..\..\..\..\Compon /
//                          ents\services\saddr\" -I "C:\Texas                /
//                          Instruments\ZStack-CC2530-2.5.1a\Projects\zstack\ /
//                          Samples\GenericApp\CC2530DB\..\..\..\..\..\Compon /
//                          ents\services\sdata\" -I "C:\Texas                /
//                          Instruments\ZStack-CC2530-2.5.1a\Projects\zstack\ /
//                          Samples\GenericApp\CC2530DB\..\..\..\..\..\Compon /
//                          ents\stack\af\" -I "C:\Texas                      /
//                          Instruments\ZStack-CC2530-2.5.1a\Projects\zstack\ /
//                          Samples\GenericApp\CC2530DB\..\..\..\..\..\Compon /
//                          ents\stack\nwk\" -I "C:\Texas                     /
//                          Instruments\ZStack-CC2530-2.5.1a\Projects\zstack\ /
//                          Samples\GenericApp\CC2530DB\..\..\..\..\..\Compon /
//                          ents\stack\sapi\" -I "C:\Texas                    /
//                          Instruments\ZStack-CC2530-2.5.1a\Projects\zstack\ /
//                          Samples\GenericApp\CC2530DB\..\..\..\..\..\Compon /
//                          ents\stack\sec\" -I "C:\Texas                     /
//                          Instruments\ZStack-CC2530-2.5.1a\Projects\zstack\ /
//                          Samples\GenericApp\CC2530DB\..\..\..\..\..\Compon /
//                          ents\stack\sys\" -I "C:\Texas                     /
//                          Instruments\ZStack-CC2530-2.5.1a\Projects\zstack\ /
//                          Samples\GenericApp\CC2530DB\..\..\..\..\..\Compon /
//                          ents\stack\zdo\" -I "C:\Texas                     /
//                          Instruments\ZStack-CC2530-2.5.1a\Projects\zstack\ /
//                          Samples\GenericApp\CC2530DB\..\..\..\..\..\Compon /
//                          ents\zmac\" -I "C:\Texas                          /
//                          Instruments\ZStack-CC2530-2.5.1a\Projects\zstack\ /
//                          Samples\GenericApp\CC2530DB\..\..\..\..\..\Compon /
//                          ents\zmac\f8w\" -Ohz --require_prototypes         /
//    List file          =  C:\Texas Instruments\ZStack-CC2530-2.5.1a\Project /
//                          s\zstack\Samples\GenericApp\CC2530DB\CoordinatorE /
//                          B\List\GenericAppCoord.s51                        /
//                                                                            /
//                                                                            /
///////////////////////////////////////////////////////////////////////////////

        NAME GenericAppCoord

        RTMODEL "__SystemLibrary", "CLib"
        RTMODEL "__calling_convention", "xdata_reentrant"
        RTMODEL "__code_model", "banked"
        RTMODEL "__core", "plain"
        RTMODEL "__data_model", "large"
        RTMODEL "__dptr_size", "16"
        RTMODEL "__extended_stack", "disabled"
        RTMODEL "__location_for_constants", "data"
        RTMODEL "__number_of_dptrs", "1"
        RTMODEL "__rt_version", "1"

        RSEG DOVERLAY:DATA:NOROOT(0)
        RSEG IOVERLAY:IDATA:NOROOT(0)
        RSEG ISTACK:IDATA:NOROOT(0)
        RSEG PSTACK:XDATA:NOROOT(0)
        RSEG XSTACK:XDATA:NOROOT(0)

        EXTERN ?ALLOC_XSTACK8
        EXTERN ?BANKED_ENTER_XDATA
        EXTERN ?BANKED_LEAVE_XDATA
        EXTERN ?BDISPATCH
        EXTERN ?DEALLOC_XSTACK8
        EXTERN ?MOVE_LONG8_XDATA_XDATA
        EXTERN ?PUSH_XSTACK_I_ONE
        EXTERN ?PUSH_XSTACK_I_TWO
        EXTERN ?US_SWITCH_DENSE
        EXTERN ?US_SWITCH_SPARSE
        EXTERN ?V0
        EXTERN ?XSP
        EXTERN ?XSTACK_DISP0_8
        EXTERN __INIT_XDATA_Z

        FUNCTION ??GenericApp_HandleKeys?relay,0203H
        PUBLIC ??GenericApp_Init?relay
        FUNCTION ??GenericApp_Init?relay,0203H
        PUBLIC ??GenericApp_ProcessEvent?relay
        FUNCTION ??GenericApp_ProcessEvent?relay,0203H
        PUBLIC GenericApp_ClusterList
        PUBLIC GenericApp_DstAddr
        FUNCTION GenericApp_HandleKeys,021203H
        ARGFRAME XSTACK, 26, STACK
        ARGFRAME IOVERLAY, 0, STATIC
        ARGFRAME DOVERLAY, 0, STATIC
        LOCFRAME XSTACK, 41, STACK
        PUBLIC GenericApp_Init
        FUNCTION GenericApp_Init,021203H
        ARGFRAME XSTACK, 0, STACK
        LOCFRAME XSTACK, 9, STACK
        PUBLIC GenericApp_NwkState
        PUBLIC GenericApp_ProcessEvent
        FUNCTION GenericApp_ProcessEvent,0a1203H
        ARGFRAME XSTACK, 0, STACK
        LOCFRAME ISTACK, 2, STACK
        LOCFRAME XSTACK, 35, STACK
        PUBLIC GenericApp_SimpleDesc
        PUBLIC GenericApp_TaskID
        PUBLIC GenericApp_TransID
        PUBLIC GenericApp_epDesc
        
        CFI Names cfiNames0
        CFI StackFrame CFA_SP SP IDATA
        CFI StackFrame CFA_PSP16 PSP16 XDATA
        CFI StackFrame CFA_XSP16 XSP16 XDATA
        CFI StaticOverlayFrame CFA_IOVERLAY IOVERLAY
        CFI StaticOverlayFrame CFA_DOVERLAY DOVERLAY
        CFI Resource `PSW.CY`:1, `B.BR0`:1, `B.BR1`:1, `B.BR2`:1, `B.BR3`:1
        CFI Resource `B.BR4`:1, `B.BR5`:1, `B.BR6`:1, `B.BR7`:1, `VB.BR8`:1
        CFI Resource `VB.BR9`:1, `VB.BR10`:1, `VB.BR11`:1, `VB.BR12`:1
        CFI Resource `VB.BR13`:1, `VB.BR14`:1, `VB.BR15`:1, VB:8, B:8, A:8
        CFI Resource PSW:8, DPL0:8, DPH0:8, R0:8, R1:8, R2:8, R3:8, R4:8, R5:8
        CFI Resource R6:8, R7:8, V0:8, V1:8, V2:8, V3:8, V4:8, V5:8, V6:8, V7:8
        CFI Resource V8:8, V9:8, V10:8, V11:8, V12:8, V13:8, V14:8, V15:8, SP:8
        CFI Resource PSPH:8, PSPL:8, PSP16:16, XSPH:8, XSPL:8, XSP16:16
        CFI VirtualResource ?RET:24
        CFI Resource ?BRET_EXT:8
        CFI VirtualResource ?RET_HIGH:8, ?RET_LOW:8
        CFI ResourceParts PSP16 PSPH, PSPL
        CFI ResourceParts XSP16 XSPH, XSPL
        CFI ResourceParts ?RET ?BRET_EXT, ?RET_HIGH, ?RET_LOW
        CFI EndNames cfiNames0
        
        CFI Common cfiCommon0 Using cfiNames0
        CFI CodeAlign 1
        CFI DataAlign -1
        CFI ReturnAddress ?RET CODE
        CFI CFA_DOVERLAY Used
        CFI CFA_IOVERLAY Used
        CFI CFA_SP SP+-3
        CFI CFA_PSP16 PSP16+0
        CFI CFA_XSP16 XSP16+0
        CFI `PSW.CY` SameValue
        CFI `B.BR0` SameValue
        CFI `B.BR1` SameValue
        CFI `B.BR2` SameValue
        CFI `B.BR3` SameValue
        CFI `B.BR4` SameValue
        CFI `B.BR5` SameValue
        CFI `B.BR6` SameValue
        CFI `B.BR7` SameValue
        CFI `VB.BR8` SameValue
        CFI `VB.BR9` SameValue
        CFI `VB.BR10` SameValue
        CFI `VB.BR11` SameValue
        CFI `VB.BR12` SameValue
        CFI `VB.BR13` SameValue
        CFI `VB.BR14` SameValue
        CFI `VB.BR15` SameValue
        CFI VB SameValue
        CFI B Undefined
        CFI A Undefined
        CFI PSW SameValue
        CFI DPL0 SameValue
        CFI DPH0 SameValue
        CFI R0 Undefined
        CFI R1 Undefined
        CFI R2 Undefined
        CFI R3 Undefined
        CFI R4 Undefined
        CFI R5 Undefined
        CFI R6 SameValue
        CFI R7 SameValue
        CFI V0 SameValue
        CFI V1 SameValue
        CFI V2 SameValue
        CFI V3 SameValue
        CFI V4 SameValue
        CFI V5 SameValue
        CFI V6 SameValue
        CFI V7 SameValue
        CFI V8 SameValue
        CFI V9 SameValue
        CFI V10 SameValue
        CFI V11 SameValue
        CFI V12 SameValue
        CFI V13 SameValue
        CFI V14 SameValue
        CFI V15 SameValue
        CFI PSPH Undefined
        CFI PSPL Undefined
        CFI XSPH Undefined
        CFI XSPL Undefined
        CFI ?RET Concat
        CFI ?BRET_EXT Frame(CFA_SP, 3)
        CFI ?RET_HIGH Frame(CFA_SP, 2)
        CFI ?RET_LOW Frame(CFA_SP, 1)
        CFI EndCommon cfiCommon0
        
        
        CFI Common cfiCommon1 Using cfiNames0
        CFI CodeAlign 1
        CFI DataAlign -1
        CFI ReturnAddress ?RET CODE
        CFI CFA_DOVERLAY Used
        CFI CFA_IOVERLAY Used
        CFI CFA_SP SP+-2
        CFI CFA_PSP16 PSP16+0
        CFI CFA_XSP16 XSP16+0
        CFI `PSW.CY` SameValue
        CFI `B.BR0` SameValue
        CFI `B.BR1` SameValue
        CFI `B.BR2` SameValue
        CFI `B.BR3` SameValue
        CFI `B.BR4` SameValue
        CFI `B.BR5` SameValue
        CFI `B.BR6` SameValue
        CFI `B.BR7` SameValue
        CFI `VB.BR8` SameValue
        CFI `VB.BR9` SameValue
        CFI `VB.BR10` SameValue
        CFI `VB.BR11` SameValue
        CFI `VB.BR12` SameValue
        CFI `VB.BR13` SameValue
        CFI `VB.BR14` SameValue
        CFI `VB.BR15` SameValue
        CFI VB SameValue
        CFI B SameValue
        CFI A SameValue
        CFI PSW SameValue
        CFI DPL0 SameValue
        CFI DPH0 SameValue
        CFI R0 SameValue
        CFI R1 SameValue
        CFI R2 SameValue
        CFI R3 SameValue
        CFI R4 SameValue
        CFI R5 SameValue
        CFI R6 SameValue
        CFI R7 SameValue
        CFI V0 SameValue
        CFI V1 SameValue
        CFI V2 SameValue
        CFI V3 SameValue
        CFI V4 SameValue
        CFI V5 SameValue
        CFI V6 SameValue
        CFI V7 SameValue
        CFI V8 SameValue
        CFI V9 SameValue
        CFI V10 SameValue
        CFI V11 SameValue
        CFI V12 SameValue
        CFI V13 SameValue
        CFI V14 SameValue
        CFI V15 SameValue
        CFI PSPH Undefined
        CFI PSPL Undefined
        CFI XSPH Undefined
        CFI XSPL Undefined
        CFI ?RET Concat
        CFI ?BRET_EXT SameValue
        CFI ?RET_HIGH Frame(CFA_SP, 2)
        CFI ?RET_LOW Frame(CFA_SP, 1)
        CFI EndCommon cfiCommon1
        
MT_UartInit         SYMBOL "MT_UartInit"
MT_UartRegisterTaskID SYMBOL "MT_UartRegisterTaskID"
HalUARTWrite        SYMBOL "HalUARTWrite"
afRegister          SYMBOL "afRegister"
RegisterForKeys     SYMBOL "RegisterForKeys"
ZDO_RegisterForZDOMsg SYMBOL "ZDO_RegisterForZDOMsg"
osal_msg_receive    SYMBOL "osal_msg_receive"
HalLedSet           SYMBOL "HalLedSet"
osal_msg_deallocate SYMBOL "osal_msg_deallocate"
ZDO_ParseEPListRsp  SYMBOL "ZDO_ParseEPListRsp"
osal_mem_free       SYMBOL "osal_mem_free"
HalLedBlink         SYMBOL "HalLedBlink"
osal_strlen         SYMBOL "osal_strlen"
AF_DataRequest      SYMBOL "AF_DataRequest"
osal_start_timerEx  SYMBOL "osal_start_timerEx"
NLME_GetShortAddr   SYMBOL "NLME_GetShortAddr"
ZDP_EndDeviceBindReq SYMBOL "ZDP_EndDeviceBindReq"
ZDP_MatchDescReq    SYMBOL "ZDP_MatchDescReq"
??AF_DataRequest?relay SYMBOL "?relay", AF_DataRequest
??HalLedBlink?relay SYMBOL "?relay", HalLedBlink
??HalLedSet?relay   SYMBOL "?relay", HalLedSet
??HalUARTWrite?relay SYMBOL "?relay", HalUARTWrite
??MT_UartInit?relay SYMBOL "?relay", MT_UartInit
??MT_UartRegisterTaskID?relay SYMBOL "?relay", MT_UartRegisterTaskID
??NLME_GetShortAddr?relay SYMBOL "?relay", NLME_GetShortAddr
??RegisterForKeys?relay SYMBOL "?relay", RegisterForKeys
??ZDO_ParseEPListRsp?relay SYMBOL "?relay", ZDO_ParseEPListRsp
??ZDO_RegisterForZDOMsg?relay SYMBOL "?relay", ZDO_RegisterForZDOMsg
??ZDP_EndDeviceBindReq?relay SYMBOL "?relay", ZDP_EndDeviceBindReq
??ZDP_MatchDescReq?relay SYMBOL "?relay", ZDP_MatchDescReq
??afRegister?relay  SYMBOL "?relay", afRegister
??osal_mem_free?relay SYMBOL "?relay", osal_mem_free
??osal_msg_deallocate?relay SYMBOL "?relay", osal_msg_deallocate
??osal_msg_receive?relay SYMBOL "?relay", osal_msg_receive
??osal_start_timerEx?relay SYMBOL "?relay", osal_start_timerEx
??osal_strlen?relay SYMBOL "?relay", osal_strlen
GenericApp_Init     SYMBOL "GenericApp_Init"
??GenericApp_Init?relay SYMBOL "?relay", GenericApp_Init
GenericApp_ProcessEvent SYMBOL "GenericApp_ProcessEvent"
??GenericApp_ProcessEvent?relay SYMBOL "?relay", GenericApp_ProcessEvent

        EXTERN MT_UartInit
        FUNCTION MT_UartInit,0202H
        ARGFRAME ISTACK, 0, STACK
        ARGFRAME PSTACK, 0, STACK
        ARGFRAME XSTACK, 9, STACK
        ARGFRAME IOVERLAY, 0, STATIC
        ARGFRAME DOVERLAY, 0, STATIC
        EXTERN MT_UartRegisterTaskID
        FUNCTION MT_UartRegisterTaskID,0202H
        ARGFRAME ISTACK, 0, STACK
        ARGFRAME PSTACK, 0, STACK
        ARGFRAME XSTACK, 9, STACK
        ARGFRAME IOVERLAY, 0, STATIC
        ARGFRAME DOVERLAY, 0, STATIC
        EXTERN HalUARTWrite
        FUNCTION HalUARTWrite,0202H
        ARGFRAME ISTACK, 0, STACK
        ARGFRAME PSTACK, 0, STACK
        ARGFRAME XSTACK, 26, STACK
        ARGFRAME IOVERLAY, 0, STATIC
        ARGFRAME DOVERLAY, 0, STATIC
        EXTERN afRegister
        FUNCTION afRegister,0202H
        ARGFRAME ISTACK, 0, STACK
        ARGFRAME PSTACK, 0, STACK
        ARGFRAME XSTACK, 9, STACK
        ARGFRAME IOVERLAY, 0, STATIC
        ARGFRAME DOVERLAY, 0, STATIC
        EXTERN RegisterForKeys
        FUNCTION RegisterForKeys,0202H
        ARGFRAME ISTACK, 0, STACK
        ARGFRAME PSTACK, 0, STACK
        ARGFRAME XSTACK, 9, STACK
        ARGFRAME IOVERLAY, 0, STATIC
        ARGFRAME DOVERLAY, 0, STATIC
        EXTERN ZDO_RegisterForZDOMsg
        FUNCTION ZDO_RegisterForZDOMsg,0202H
        ARGFRAME ISTACK, 0, STACK
        ARGFRAME PSTACK, 0, STACK
        ARGFRAME XSTACK, 9, STACK
        ARGFRAME IOVERLAY, 0, STATIC
        ARGFRAME DOVERLAY, 0, STATIC
        EXTERN osal_msg_receive
        FUNCTION osal_msg_receive,0202H
        ARGFRAME ISTACK, 0, STACK
        ARGFRAME PSTACK, 0, STACK
        ARGFRAME XSTACK, 26, STACK
        ARGFRAME IOVERLAY, 0, STATIC
        ARGFRAME DOVERLAY, 0, STATIC
        EXTERN HalLedSet
        FUNCTION HalLedSet,0202H
        ARGFRAME ISTACK, 0, STACK
        ARGFRAME PSTACK, 0, STACK
        ARGFRAME XSTACK, 32, STACK
        ARGFRAME IOVERLAY, 0, STATIC
        ARGFRAME DOVERLAY, 0, STATIC
        EXTERN osal_msg_deallocate
        FUNCTION osal_msg_deallocate,0202H
        ARGFRAME ISTACK, 0, STACK
        ARGFRAME PSTACK, 0, STACK
        ARGFRAME XSTACK, 26, STACK
        ARGFRAME IOVERLAY, 0, STATIC
        ARGFRAME DOVERLAY, 0, STATIC
        EXTERN ZDO_ParseEPListRsp
        FUNCTION ZDO_ParseEPListRsp,0202H
        ARGFRAME ISTACK, 0, STACK
        ARGFRAME PSTACK, 0, STACK
        ARGFRAME XSTACK, 26, STACK
        ARGFRAME IOVERLAY, 0, STATIC
        ARGFRAME DOVERLAY, 0, STATIC
        EXTERN osal_mem_free
        FUNCTION osal_mem_free,0202H
        ARGFRAME ISTACK, 0, STACK
        ARGFRAME PSTACK, 0, STACK
        ARGFRAME XSTACK, 26, STACK
        ARGFRAME IOVERLAY, 0, STATIC
        ARGFRAME DOVERLAY, 0, STATIC
        EXTERN HalLedBlink
        FUNCTION HalLedBlink,0202H
        ARGFRAME ISTACK, 0, STACK
        ARGFRAME PSTACK, 0, STACK
        ARGFRAME XSTACK, 32, STACK
        ARGFRAME IOVERLAY, 0, STATIC
        ARGFRAME DOVERLAY, 0, STATIC
        EXTERN osal_strlen
        FUNCTION osal_strlen,0202H
        ARGFRAME ISTACK, 0, STACK
        ARGFRAME PSTACK, 0, STACK
        ARGFRAME XSTACK, 31, STACK
        ARGFRAME IOVERLAY, 0, STATIC
        ARGFRAME DOVERLAY, 0, STATIC
        EXTERN AF_DataRequest
        FUNCTION AF_DataRequest,0202H
        ARGFRAME ISTACK, 0, STACK
        ARGFRAME PSTACK, 0, STACK
        ARGFRAME XSTACK, 41, STACK
        ARGFRAME IOVERLAY, 0, STATIC
        ARGFRAME DOVERLAY, 0, STATIC
        EXTERN osal_start_timerEx
        FUNCTION osal_start_timerEx,0202H
        ARGFRAME ISTACK, 0, STACK
        ARGFRAME PSTACK, 0, STACK
        ARGFRAME XSTACK, 26, STACK
        ARGFRAME IOVERLAY, 0, STATIC
        ARGFRAME DOVERLAY, 0, STATIC
        EXTERN NLME_GetShortAddr
        FUNCTION NLME_GetShortAddr,0202H
        ARGFRAME ISTACK, 0, STACK
        ARGFRAME PSTACK, 0, STACK
        ARGFRAME XSTACK, 32, STACK
        ARGFRAME IOVERLAY, 0, STATIC
        ARGFRAME DOVERLAY, 0, STATIC
        EXTERN ZDP_EndDeviceBindReq
        FUNCTION ZDP_EndDeviceBindReq,0202H
        ARGFRAME ISTACK, 0, STACK
        ARGFRAME PSTACK, 0, STACK
        ARGFRAME XSTACK, 41, STACK
        ARGFRAME IOVERLAY, 0, STATIC
        ARGFRAME DOVERLAY, 0, STATIC
        EXTERN ZDP_MatchDescReq
        FUNCTION ZDP_MatchDescReq,0202H
        ARGFRAME ISTACK, 0, STACK
        ARGFRAME PSTACK, 0, STACK
        ARGFRAME XSTACK, 40, STACK
        ARGFRAME IOVERLAY, 0, STATIC
        ARGFRAME DOVERLAY, 0, STATIC
        EXTERN ??AF_DataRequest?relay
        FUNCTION ??AF_DataRequest?relay,00H
        EXTERN ??HalLedBlink?relay
        FUNCTION ??HalLedBlink?relay,00H
        EXTERN ??HalLedSet?relay
        FUNCTION ??HalLedSet?relay,00H
        EXTERN ??HalUARTWrite?relay
        FUNCTION ??HalUARTWrite?relay,00H
        EXTERN ??MT_UartInit?relay
        FUNCTION ??MT_UartInit?relay,00H
        EXTERN ??MT_UartRegisterTaskID?relay
        FUNCTION ??MT_UartRegisterTaskID?relay,00H
        EXTERN ??NLME_GetShortAddr?relay
        FUNCTION ??NLME_GetShortAddr?relay,00H
        EXTERN ??RegisterForKeys?relay
        FUNCTION ??RegisterForKeys?relay,00H
        EXTERN ??ZDO_ParseEPListRsp?relay
        FUNCTION ??ZDO_ParseEPListRsp?relay,00H
        EXTERN ??ZDO_RegisterForZDOMsg?relay
        FUNCTION ??ZDO_RegisterForZDOMsg?relay,00H
        EXTERN ??ZDP_EndDeviceBindReq?relay
        FUNCTION ??ZDP_EndDeviceBindReq?relay,00H
        EXTERN ??ZDP_MatchDescReq?relay
        FUNCTION ??ZDP_MatchDescReq?relay,00H
        EXTERN ??afRegister?relay
        FUNCTION ??afRegister?relay,00H
        EXTERN ??osal_mem_free?relay
        FUNCTION ??osal_mem_free?relay,00H
        EXTERN ??osal_msg_deallocate?relay
        FUNCTION ??osal_msg_deallocate?relay,00H
        EXTERN ??osal_msg_receive?relay
        FUNCTION ??osal_msg_receive?relay,00H
        EXTERN ??osal_start_timerEx?relay
        FUNCTION ??osal_start_timerEx?relay,00H
        EXTERN ??osal_strlen?relay
        FUNCTION ??osal_strlen?relay,00H

// C:\Texas Instruments\ZStack-CC2530-2.5.1a\Projects\zstack\Samples\GenericApp\Source\GenericAppCoord.c
//    1 /******************************************************************************
//    2   Filename:       GenericApp.c
//    3   Revised:        $Date: 2012-03-07 01:04:58 -0800 (Wed, 07 Mar 2012) $
//    4   Revision:       $Revision: 29656 $
//    5 
//    6   Description:    Generic Application (no Profile).
//    7 
//    8 
//    9   Copyright 2004-2012 Texas Instruments Incorporated. All rights reserved.
//   10 
//   11   IMPORTANT: Your use of this Software is limited to those specific rights
//   12   granted under the terms of a software license agreement between the user
//   13   who downloaded the software, his/her employer (which must be your employer)
//   14   and Texas Instruments Incorporated (the "License"). You may not use this
//   15   Software unless you agree to abide by the terms of the License. The License
//   16   limits your use, and you acknowledge, that the Software may not be modified,
//   17   copied or distributed unless embedded on a Texas Instruments microcontroller
//   18   or used solely and exclusively in conjunction with a Texas Instruments radio
//   19   frequency transceiver, which is integrated into your product. Other than for
//   20   the foregoing purpose, you may not use, reproduce, copy, prepare derivative
//   21   works of, modify, distribute, perform, display or sell this Software and/or
//   22   its documentation for any purpose.
//   23 
//   24   YOU FURTHER ACKNOWLEDGE AND AGREE THAT THE SOFTWARE AND DOCUMENTATION ARE
//   25   PROVIDED “AS IS?WITHOUT WARRANTY OF ANY KIND, EITHER EXPRESS OR IMPLIED,
//   26   INCLUDING WITHOUT LIMITATION, ANY WARRANTY OF MERCHANTABILITY, TITLE,
//   27   NON-INFRINGEMENT AND FITNESS FOR A PARTICULAR PURPOSE. IN NO EVENT SHALL
//   28   TEXAS INSTRUMENTS OR ITS LICENSORS BE LIABLE OR OBLIGATED UNDER CONTRACT,
//   29   NEGLIGENCE, STRICT LIABILITY, CONTRIBUTION, BREACH OF WARRANTY, OR OTHER
//   30   LEGAL EQUITABLE THEORY ANY DIRECT OR INDIRECT DAMAGES OR EXPENSES
//   31   INCLUDING BUT NOT LIMITED TO ANY INCIDENTAL, SPECIAL, INDIRECT, PUNITIVE
//   32   OR CONSEQUENTIAL DAMAGES, LOST PROFITS OR LOST DATA, COST OF PROCUREMENT
//   33   OF SUBSTITUTE GOODS, TECHNOLOGY, SERVICES, OR ANY CLAIMS BY THIRD PARTIES
//   34   (INCLUDING BUT NOT LIMITED TO ANY DEFENSE THEREOF), OR OTHER SIMILAR COSTS.
//   35 
//   36   Should you have any questions regarding your right to use this Software,
//   37   contact Texas Instruments Incorporated at www.TI.com.
//   38 ******************************************************************************/
//   39 
//   40 /*********************************************************************
//   41   This application isn't intended to do anything useful, it is
//   42   intended to be a simple example of an application's structure.
//   43 
//   44   This application sends "Hello World" to another "Generic"
//   45   application every 5 seconds.  The application will also
//   46   receives "Hello World" packets.
//   47 
//   48   The "Hello World" messages are sent/received as MSG type message.
//   49 
//   50   This applications doesn't have a profile, so it handles everything
//   51   directly - itself.
//   52 
//   53   Key control:
//   54     SW1:
//   55     SW2:  initiates end device binding
//   56     SW3:
//   57     SW4:  initiates a match description request
//   58 *********************************************************************/
//   59 
//   60 /*********************************************************************
//   61  * INCLUDES
//   62  */
//   63 #include "OSAL.h"
//   64 #include "AF.h"
//   65 #include "ZDApp.h"
//   66 #include "ZDObject.h"
//   67 #include "ZDProfile.h"
//   68 
//   69 #include "GenericApp.h"
//   70 #include "DebugTrace.h"
//   71 
//   72 #if !defined( WIN32 )
//   73   #include "OnBoard.h"
//   74 #endif
//   75 
//   76 /* HAL */
//   77 #include "hal_lcd.h"
//   78 #include "hal_led.h"
//   79 #include "hal_key.h"
//   80 #include "hal_uart.h"
//   81 #include "MT_uart.h"
//   82 #include "MT.h"
//   83 //#include "init.h"
//   84 /* RTOS */
//   85 #if defined( IAR_ARMCM3_LM )
//   86 #include "RTOS_App.h"
//   87 #endif
//   88 
//   89 /*********************************************************************
//   90  * MACROS
//   91  */
//   92 
//   93 /*********************************************************************
//   94  * CONSTANTS
//   95  */
//   96 
//   97 /*********************************************************************
//   98  * TYPEDEFS
//   99  */
//  100 
//  101 /*********************************************************************
//  102  * GLOBAL VARIABLES
//  103  */
//  104 // This list should be filled with Application specific Cluster IDs.

        RSEG XDATA_ROM_C:CONST:REORDER:NOROOT(0)
        DATA8
//  105 const cId_t GenericApp_ClusterList[GENERICAPP_MAX_CLUSTERS] =
GenericApp_ClusterList:
        DATA16
        DW 1
        DW 0
        DW 0
        DW 0
//  106 {
//  107   GENERICAPP_CLUSTERID
//  108 };
//  109 

        RSEG XDATA_ROM_C:CONST:REORDER:NOROOT(0)
        DATA8
//  110 const SimpleDescriptionFormat_t GenericApp_SimpleDesc =
GenericApp_SimpleDesc:
        DB 44
        DATA16
        DW 3844
        DW 1
        DATA8
        DB 0
        DB 4
        DATA16
        DW GenericApp_ClusterList
        DATA8
        DB 4
        DATA16
        DW GenericApp_ClusterList
//  111 {
//  112   GENERICAPP_ENDPOINT,              //  int Endpoint;
//  113   GENERICAPP_PROFID,                //  uint16 AppProfId[2];
//  114   GENERICAPP_DEVICEID,              //  uint16 AppDeviceId[2];
//  115   GENERICAPP_DEVICE_VERSION,        //  int   AppDevVer:4;
//  116   GENERICAPP_FLAGS,                 //  int   AppFlags:4;
//  117   GENERICAPP_MAX_CLUSTERS,          //  byte  AppNumInClusters;
//  118   (cId_t *)GenericApp_ClusterList,  //  byte *pAppInClusterList;
//  119   GENERICAPP_MAX_CLUSTERS,          //  byte  AppNumInClusters;
//  120   (cId_t *)GenericApp_ClusterList   //  byte *pAppInClusterList;
//  121 };
//  122 
//  123 // This is the Endpoint/Interface description.  It is defined here, but
//  124 // filled-in in GenericApp_Init().  Another way to go would be to fill
//  125 // in the structure here and make it a "const" (in code space).  The
//  126 // way it's defined in this sample app it is define in RAM.

        RSEG XDATA_Z:XDATA:NOROOT(0)
        DATA8
//  127 endPointDesc_t GenericApp_epDesc;
GenericApp_epDesc:
        DS 6
        REQUIRE __INIT_XDATA_Z
//  128 
//  129 /*********************************************************************
//  130  * EXTERNAL VARIABLES
//  131  */
//  132 
//  133 /*********************************************************************
//  134  * EXTERNAL FUNCTIONS
//  135  */
//  136 
//  137 /*********************************************************************
//  138  * LOCAL VARIABLES
//  139  */

        RSEG XDATA_Z:XDATA:NOROOT(0)
        DATA8
//  140 byte GenericApp_TaskID;   // Task ID for internal task/event processing
GenericApp_TaskID:
        DS 1
        REQUIRE __INIT_XDATA_Z
//  141                           // This variable will be received when
//  142                           // GenericApp_Init() is called.

        RSEG XDATA_Z:XDATA:NOROOT(0)
        DATA8
//  143 devStates_t GenericApp_NwkState;
GenericApp_NwkState:
        DS 1
        REQUIRE __INIT_XDATA_Z
//  144 
//  145 

        RSEG XDATA_Z:XDATA:NOROOT(0)
        DATA8
//  146 byte GenericApp_TransID;  // This is the unique message ID (counter)
GenericApp_TransID:
        DS 1
        REQUIRE __INIT_XDATA_Z
//  147 

        RSEG XDATA_Z:XDATA:NOROOT(0)
        DATA8
//  148 afAddrType_t GenericApp_DstAddr;
GenericApp_DstAddr:
        DS 12
        REQUIRE __INIT_XDATA_Z
//  149 
//  150 /*********************************************************************
//  151  * LOCAL FUNCTIONS
//  152  */
//  153 static void GenericApp_UartRxMsgs(mtOSALSerialData_t *rxpkt);//´®żÚ˝ÓĘŐ·ţÎńşŻĘý
//  154 static void GenericApp_ProcessZDOMsgs( zdoIncomingMsg_t *inMsg );
//  155 static void GenericApp_HandleKeys( byte shift, byte keys );
//  156 //static void GenericApp_MessageMSGCB( afIncomingMSGPacket_t *pckt );
//  157 static void GenericApp_SendTheMessage( void );
//  158 static void GenericApp_MessageMSGCB(afIncomingMSGPacket_t *MSGpkt);
//  159 static void GenericApp_AF_P2P(uint16 destNwkAddr,uint16 cid,uint8 len,uint8 *data);
//  160 static void GenericApp_AF_Broadcast(uint16 cid,uint8 len, uint8 *data);
//  161 static void zclSampleSw_AF_Groupcast(uint16 groupId,uint16 cid,uint8 len, uint8 *data);
//  162 //test
//  163 
//  164 #if defined( IAR_ARMCM3_LM )
//  165 static void GenericApp_ProcessRtosMessage( void );
//  166 #endif
//  167 
//  168 /*********************************************************************
//  169  * NETWORK LAYER CALLBACKS
//  170  */
//  171 
//  172 /*********************************************************************
//  173  * PUBLIC FUNCTIONS
//  174  */
//  175 
//  176 /*********************************************************************
//  177  * @fn      GenericApp_Init
//  178  *
//  179  * @brief   Initialization function for the Generic App Task.
//  180  *          This is called during initialization and should contain
//  181  *          any application specific initialization (ie. hardware
//  182  *          initialization/setup, table initialization, power up
//  183  *          notificaiton ... ).
//  184  *
//  185  * @param   task_id - the ID assigned by OSAL.  This ID should be
//  186  *                    used to send messages and set timers.
//  187  *
//  188  * @return  none
//  189  */
//  190 static void GenericApp_UartRxMsgs(mtOSALSerialData_t *rxpkt){
//  191   uint8 len,*UartRxBuffer=NULL;
//  192   UartRxBuffer = rxpkt->msg;
//  193   len = *UartRxBuffer;
//  194   HalUARTWrite(0,UartRxBuffer+1,len);
//  195   HalUARTWrite(0,"\r\n",2);
//  196 }

        RSEG BANKED_CODE:CODE:NOROOT(0)
//  197 void GenericApp_Init( uint8 task_id )
GenericApp_Init:
        CFI Block cfiBlock0 Using cfiCommon0
        CFI Function GenericApp_Init
        CODE
//  198 {
        FUNCALL GenericApp_Init, MT_UartInit
        LOCFRAME ISTACK, 0, STACK
        LOCFRAME PSTACK, 0, STACK
        LOCFRAME XSTACK, 9, STACK
        LOCFRAME IOVERLAY, 0, STATIC
        LOCFRAME DOVERLAY, 0, STATIC
        ARGFRAME ISTACK, 0, STACK
        ARGFRAME PSTACK, 0, STACK
        ARGFRAME XSTACK, 9, STACK
        ARGFRAME IOVERLAY, 0, STATIC
        ARGFRAME DOVERLAY, 0, STATIC
        FUNCALL GenericApp_Init, MT_UartRegisterTaskID
        LOCFRAME ISTACK, 0, STACK
        LOCFRAME PSTACK, 0, STACK
        LOCFRAME XSTACK, 9, STACK
        LOCFRAME IOVERLAY, 0, STATIC
        LOCFRAME DOVERLAY, 0, STATIC
        ARGFRAME ISTACK, 0, STACK
        ARGFRAME PSTACK, 0, STACK
        ARGFRAME XSTACK, 9, STACK
        ARGFRAME IOVERLAY, 0, STATIC
        ARGFRAME DOVERLAY, 0, STATIC
        FUNCALL GenericApp_Init, HalUARTWrite
        LOCFRAME ISTACK, 0, STACK
        LOCFRAME PSTACK, 0, STACK
        LOCFRAME XSTACK, 9, STACK
        LOCFRAME IOVERLAY, 0, STATIC
        LOCFRAME DOVERLAY, 0, STATIC
        ARGFRAME ISTACK, 0, STACK
        ARGFRAME PSTACK, 0, STACK
        ARGFRAME XSTACK, 9, STACK
        ARGFRAME IOVERLAY, 0, STATIC
        ARGFRAME DOVERLAY, 0, STATIC
        FUNCALL GenericApp_Init, afRegister
        LOCFRAME ISTACK, 0, STACK
        LOCFRAME PSTACK, 0, STACK
        LOCFRAME XSTACK, 9, STACK
        LOCFRAME IOVERLAY, 0, STATIC
        LOCFRAME DOVERLAY, 0, STATIC
        ARGFRAME ISTACK, 0, STACK
        ARGFRAME PSTACK, 0, STACK
        ARGFRAME XSTACK, 9, STACK
        ARGFRAME IOVERLAY, 0, STATIC
        ARGFRAME DOVERLAY, 0, STATIC
        FUNCALL GenericApp_Init, RegisterForKeys
        LOCFRAME ISTACK, 0, STACK
        LOCFRAME PSTACK, 0, STACK
        LOCFRAME XSTACK, 9, STACK
        LOCFRAME IOVERLAY, 0, STATIC
        LOCFRAME DOVERLAY, 0, STATIC
        ARGFRAME ISTACK, 0, STACK
        ARGFRAME PSTACK, 0, STACK
        ARGFRAME XSTACK, 9, STACK
        ARGFRAME IOVERLAY, 0, STATIC
        ARGFRAME DOVERLAY, 0, STATIC
        FUNCALL GenericApp_Init, ZDO_RegisterForZDOMsg
        LOCFRAME ISTACK, 0, STACK
        LOCFRAME PSTACK, 0, STACK
        LOCFRAME XSTACK, 9, STACK
        LOCFRAME IOVERLAY, 0, STATIC
        LOCFRAME DOVERLAY, 0, STATIC
        ARGFRAME ISTACK, 0, STACK
        ARGFRAME PSTACK, 0, STACK
        ARGFRAME XSTACK, 9, STACK
        ARGFRAME IOVERLAY, 0, STATIC
        ARGFRAME DOVERLAY, 0, STATIC
        FUNCALL GenericApp_Init, ZDO_RegisterForZDOMsg
        LOCFRAME ISTACK, 0, STACK
        LOCFRAME PSTACK, 0, STACK
        LOCFRAME XSTACK, 9, STACK
        LOCFRAME IOVERLAY, 0, STATIC
        LOCFRAME DOVERLAY, 0, STATIC
        ARGFRAME ISTACK, 0, STACK
        ARGFRAME PSTACK, 0, STACK
        ARGFRAME XSTACK, 9, STACK
        ARGFRAME IOVERLAY, 0, STATIC
        ARGFRAME DOVERLAY, 0, STATIC
        MOV     A,#-0x9
        LCALL   ?BANKED_ENTER_XDATA
        CFI DPH0 load(1, XDATA, add(CFA_XSP16, literal(-1)))
        CFI DPL0 load(1, XDATA, add(CFA_XSP16, literal(-2)))
        CFI ?BRET_EXT load(1, XDATA, add(CFA_XSP16, literal(-3)))
        CFI ?RET_HIGH load(1, XDATA, add(CFA_XSP16, literal(-4)))
        CFI ?RET_LOW load(1, XDATA, add(CFA_XSP16, literal(-5)))
        CFI R7 load(1, XDATA, add(CFA_XSP16, literal(-6)))
        CFI V0 load(1, XDATA, add(CFA_XSP16, literal(-7)))
        CFI VB load(1, XDATA, add(CFA_XSP16, literal(-8)))
        CFI R6 load(1, XDATA, add(CFA_XSP16, literal(-9)))
        CFI CFA_SP SP+0
        CFI CFA_XSP16 add(XSP16, 9)
        ; Saved register size: 9
        ; Auto size: 0
        MOV     A,R1
        MOV     R6,A
//  199   GenericApp_TaskID = task_id;
        MOV     DPTR,#GenericApp_TaskID
        MOVX    @DPTR,A
//  200   GenericApp_NwkState = DEV_INIT;
        MOV     DPTR,#GenericApp_NwkState
        MOV     A,#0x1
        MOVX    @DPTR,A
//  201   GenericApp_TransID = 0;
        MOV     DPTR,#GenericApp_TransID
        CLR     A
        MOVX    @DPTR,A
//  202   MT_UartInit();
        ; Setup parameters for call to function MT_UartInit
        LCALL   ??MT_UartInit?relay
//  203   MT_UartRegisterTaskID(task_id);
        ; Setup parameters for call to function MT_UartRegisterTaskID
        MOV     A,R6
        MOV     R1,A
        LCALL   ??MT_UartRegisterTaskID?relay
//  204   HalUARTWrite(0,"hello!",6);
        ; Setup parameters for call to function HalUARTWrite
        MOV     R4,#0x6
        MOV     R5,#0x0
        MOV     R2,#`?<Constant "hello!">` & 0xff
        MOV     R3,#(`?<Constant "hello!">` >> 8) & 0xff
        MOV     R1,#0x0
        LCALL   ??HalUARTWrite?relay
//  205   // Device hardware initialization can be added here or in main() (Zmain.c).
//  206   // If the hardware is application specific - add it here.
//  207   // If the hardware is other parts of the device add it in main().
//  208 
//  209   GenericApp_DstAddr.addrMode = (afAddrMode_t)AddrNotPresent;
        MOV     DPTR,#GenericApp_DstAddr + 8
        CLR     A
        MOVX    @DPTR,A
//  210   GenericApp_DstAddr.endPoint = 0;
        INC     DPTR
        MOVX    @DPTR,A
//  211   GenericApp_DstAddr.addr.shortAddr = 0;
        MOV     DPTR,#GenericApp_DstAddr
        MOVX    @DPTR,A
        INC     DPTR
        MOVX    @DPTR,A
//  212 
//  213   // Fill out the endpoint description.
//  214   GenericApp_epDesc.endPoint = GENERICAPP_ENDPOINT;
        MOV     DPTR,#GenericApp_epDesc
        MOV     A,#0x2c
        MOVX    @DPTR,A
//  215   GenericApp_epDesc.task_id = &GenericApp_TaskID;
        INC     DPTR
        MOV     A,#GenericApp_TaskID & 0xff
        MOVX    @DPTR,A
        INC     DPTR
        MOV     A,#(GenericApp_TaskID >> 8) & 0xff
        MOVX    @DPTR,A
//  216   GenericApp_epDesc.simpleDesc
//  217             = (SimpleDescriptionFormat_t *)&GenericApp_SimpleDesc;
        INC     DPTR
        MOV     A,#GenericApp_SimpleDesc & 0xff
        MOVX    @DPTR,A
        INC     DPTR
        MOV     A,#(GenericApp_SimpleDesc >> 8) & 0xff
        MOVX    @DPTR,A
//  218   GenericApp_epDesc.latencyReq = noLatencyReqs;
        INC     DPTR
        CLR     A
        MOVX    @DPTR,A
//  219 
//  220   // Register the endpoint description with the AF
//  221   afRegister( &GenericApp_epDesc );
        ; Setup parameters for call to function afRegister
        MOV     R2,#GenericApp_epDesc & 0xff
        MOV     R3,#(GenericApp_epDesc >> 8) & 0xff
        LCALL   ??afRegister?relay
//  222 
//  223   // Register for all key events - This app will handle all key events
//  224   RegisterForKeys( GenericApp_TaskID );
        ; Setup parameters for call to function RegisterForKeys
        MOV     DPTR,#GenericApp_TaskID
        MOVX    A,@DPTR
        MOV     R1,A
        LCALL   ??RegisterForKeys?relay
//  225 
//  226   // Update the display
//  227 #if defined ( LCD_SUPPORTED )
//  228   HalLcdWriteString( "GenericApp", HAL_LCD_LINE_1 );
//  229 #endif
//  230 
//  231   ZDO_RegisterForZDOMsg( GenericApp_TaskID, End_Device_Bind_rsp );
        ; Setup parameters for call to function ZDO_RegisterForZDOMsg
        MOV     R2,#0x20
        MOV     R3,#-0x80
        MOV     DPTR,#GenericApp_TaskID
        MOVX    A,@DPTR
        MOV     R1,A
        LCALL   ??ZDO_RegisterForZDOMsg?relay
//  232   ZDO_RegisterForZDOMsg( GenericApp_TaskID, Match_Desc_rsp );
        ; Setup parameters for call to function ZDO_RegisterForZDOMsg
        MOV     R2,#0x6
        MOV     R3,#-0x80
        MOV     DPTR,#GenericApp_TaskID
        MOVX    A,@DPTR
        MOV     R1,A
        LCALL   ??ZDO_RegisterForZDOMsg?relay
//  233 
//  234 #if defined( IAR_ARMCM3_LM )
//  235   // Register this task with RTOS task initiator
//  236   RTOS_RegisterApp( task_id, GENERICAPP_RTOS_MSG_EVT );
//  237 #endif
//  238 }
        MOV     R7,#0x1
        LJMP    ?BANKED_LEAVE_XDATA
        CFI EndBlock cfiBlock0
//  239 
//  240 /*********************************************************************
//  241  * @fn      GenericApp_ProcessEvent
//  242  *
//  243  * @brief   Generic Application Task event processor.  This function
//  244  *          is called to process all events for the task.  Events
//  245  *          include timers, messages and any other user defined events.
//  246  *
//  247  * @param   task_id  - The OSAL assigned task ID.
//  248  * @param   events - events to process.  This is a bit map and can
//  249  *                   contain more than one event.
//  250  *
//  251  * @return  none
//  252  */

        RSEG BANKED_CODE:CODE:NOROOT(0)
//  253 uint16 GenericApp_ProcessEvent( uint8 task_id, uint16 events )
GenericApp_ProcessEvent:
        CFI Block cfiBlock1 Using cfiCommon0
        CFI Function GenericApp_ProcessEvent
        CODE
//  254 {
        FUNCALL GenericApp_ProcessEvent, osal_msg_receive
        LOCFRAME ISTACK, 0, STACK
        LOCFRAME PSTACK, 0, STACK
        LOCFRAME XSTACK, 26, STACK
        LOCFRAME IOVERLAY, 0, STATIC
        LOCFRAME DOVERLAY, 0, STATIC
        ARGFRAME ISTACK, 0, STACK
        ARGFRAME PSTACK, 0, STACK
        ARGFRAME XSTACK, 26, STACK
        ARGFRAME IOVERLAY, 0, STATIC
        ARGFRAME DOVERLAY, 0, STATIC
        FUNCALL GenericApp_ProcessEvent, HalUARTWrite
        LOCFRAME ISTACK, 0, STACK
        LOCFRAME PSTACK, 0, STACK
        LOCFRAME XSTACK, 26, STACK
        LOCFRAME IOVERLAY, 0, STATIC
        LOCFRAME DOVERLAY, 0, STATIC
        ARGFRAME ISTACK, 0, STACK
        ARGFRAME PSTACK, 0, STACK
        ARGFRAME XSTACK, 26, STACK
        ARGFRAME IOVERLAY, 0, STATIC
        ARGFRAME DOVERLAY, 0, STATIC
        FUNCALL GenericApp_ProcessEvent, HalLedSet
        LOCFRAME ISTACK, 0, STACK
        LOCFRAME PSTACK, 0, STACK
        LOCFRAME XSTACK, 26, STACK
        LOCFRAME IOVERLAY, 0, STATIC
        LOCFRAME DOVERLAY, 0, STATIC
        ARGFRAME ISTACK, 0, STACK
        ARGFRAME PSTACK, 0, STACK
        ARGFRAME XSTACK, 26, STACK
        ARGFRAME IOVERLAY, 0, STATIC
        ARGFRAME DOVERLAY, 0, STATIC
        FUNCALL GenericApp_ProcessEvent, osal_msg_deallocate
        LOCFRAME ISTACK, 0, STACK
        LOCFRAME PSTACK, 0, STACK
        LOCFRAME XSTACK, 26, STACK
        LOCFRAME IOVERLAY, 0, STATIC
        LOCFRAME DOVERLAY, 0, STATIC
        ARGFRAME ISTACK, 0, STACK
        ARGFRAME PSTACK, 0, STACK
        ARGFRAME XSTACK, 26, STACK
        ARGFRAME IOVERLAY, 0, STATIC
        ARGFRAME DOVERLAY, 0, STATIC
        FUNCALL GenericApp_ProcessEvent, osal_msg_receive
        LOCFRAME ISTACK, 0, STACK
        LOCFRAME PSTACK, 0, STACK
        LOCFRAME XSTACK, 26, STACK
        LOCFRAME IOVERLAY, 0, STATIC
        LOCFRAME DOVERLAY, 0, STATIC
        ARGFRAME ISTACK, 0, STACK
        ARGFRAME PSTACK, 0, STACK
        ARGFRAME XSTACK, 26, STACK
        ARGFRAME IOVERLAY, 0, STATIC
        ARGFRAME DOVERLAY, 0, STATIC
        FUNCALL GenericApp_ProcessEvent, ZDO_ParseEPListRsp
        LOCFRAME ISTACK, 0, STACK
        LOCFRAME PSTACK, 0, STACK
        LOCFRAME XSTACK, 26, STACK
        LOCFRAME IOVERLAY, 0, STATIC
        LOCFRAME DOVERLAY, 0, STATIC
        ARGFRAME ISTACK, 0, STACK
        ARGFRAME PSTACK, 0, STACK
        ARGFRAME XSTACK, 26, STACK
        ARGFRAME IOVERLAY, 0, STATIC
        ARGFRAME DOVERLAY, 0, STATIC
        FUNCALL GenericApp_ProcessEvent, HalLedSet
        LOCFRAME ISTACK, 0, STACK
        LOCFRAME PSTACK, 0, STACK
        LOCFRAME XSTACK, 26, STACK
        LOCFRAME IOVERLAY, 0, STATIC
        LOCFRAME DOVERLAY, 0, STATIC
        ARGFRAME ISTACK, 0, STACK
        ARGFRAME PSTACK, 0, STACK
        ARGFRAME XSTACK, 26, STACK
        ARGFRAME IOVERLAY, 0, STATIC
        ARGFRAME DOVERLAY, 0, STATIC
        FUNCALL GenericApp_ProcessEvent, osal_mem_free
        LOCFRAME ISTACK, 0, STACK
        LOCFRAME PSTACK, 0, STACK
        LOCFRAME XSTACK, 26, STACK
        LOCFRAME IOVERLAY, 0, STATIC
        LOCFRAME DOVERLAY, 0, STATIC
        ARGFRAME ISTACK, 0, STACK
        ARGFRAME PSTACK, 0, STACK
        ARGFRAME XSTACK, 26, STACK
        ARGFRAME IOVERLAY, 0, STATIC
        ARGFRAME DOVERLAY, 0, STATIC
        FUNCALL GenericApp_ProcessEvent, HalLedSet
        LOCFRAME ISTACK, 0, STACK
        LOCFRAME PSTACK, 0, STACK
        LOCFRAME XSTACK, 26, STACK
        LOCFRAME IOVERLAY, 0, STATIC
        LOCFRAME DOVERLAY, 0, STATIC
        ARGFRAME ISTACK, 0, STACK
        ARGFRAME PSTACK, 0, STACK
        ARGFRAME XSTACK, 26, STACK
        ARGFRAME IOVERLAY, 0, STATIC
        ARGFRAME DOVERLAY, 0, STATIC
        FUNCALL GenericApp_ProcessEvent, HalLedSet
        LOCFRAME ISTACK, 0, STACK
        LOCFRAME PSTACK, 0, STACK
        LOCFRAME XSTACK, 26, STACK
        LOCFRAME IOVERLAY, 0, STATIC
        LOCFRAME DOVERLAY, 0, STATIC
        ARGFRAME ISTACK, 0, STACK
        ARGFRAME PSTACK, 0, STACK
        ARGFRAME XSTACK, 26, STACK
        ARGFRAME IOVERLAY, 0, STATIC
        ARGFRAME DOVERLAY, 0, STATIC
        FUNCALL GenericApp_ProcessEvent, GenericApp_HandleKeys
        LOCFRAME ISTACK, 0, STACK
        LOCFRAME PSTACK, 0, STACK
        LOCFRAME XSTACK, 26, STACK
        LOCFRAME IOVERLAY, 0, STATIC
        LOCFRAME DOVERLAY, 0, STATIC
        ARGFRAME ISTACK, 0, STACK
        ARGFRAME PSTACK, 0, STACK
        ARGFRAME XSTACK, 26, STACK
        ARGFRAME IOVERLAY, 0, STATIC
        ARGFRAME DOVERLAY, 0, STATIC
        FUNCALL GenericApp_ProcessEvent, HalLedBlink
        LOCFRAME ISTACK, 0, STACK
        LOCFRAME PSTACK, 0, STACK
        LOCFRAME XSTACK, 26, STACK
        LOCFRAME IOVERLAY, 0, STATIC
        LOCFRAME DOVERLAY, 0, STATIC
        ARGFRAME ISTACK, 0, STACK
        ARGFRAME PSTACK, 0, STACK
        ARGFRAME XSTACK, 26, STACK
        ARGFRAME IOVERLAY, 0, STATIC
        ARGFRAME DOVERLAY, 0, STATIC
        FUNCALL GenericApp_ProcessEvent, HalUARTWrite
        LOCFRAME ISTACK, 0, STACK
        LOCFRAME PSTACK, 0, STACK
        LOCFRAME XSTACK, 26, STACK
        LOCFRAME IOVERLAY, 0, STATIC
        LOCFRAME DOVERLAY, 0, STATIC
        ARGFRAME ISTACK, 0, STACK
        ARGFRAME PSTACK, 0, STACK
        ARGFRAME XSTACK, 26, STACK
        ARGFRAME IOVERLAY, 0, STATIC
        ARGFRAME DOVERLAY, 0, STATIC
        FUNCALL GenericApp_ProcessEvent, HalUARTWrite
        LOCFRAME ISTACK, 0, STACK
        LOCFRAME PSTACK, 0, STACK
        LOCFRAME XSTACK, 26, STACK
        LOCFRAME IOVERLAY, 0, STATIC
        LOCFRAME DOVERLAY, 0, STATIC
        ARGFRAME ISTACK, 0, STACK
        ARGFRAME PSTACK, 0, STACK
        ARGFRAME XSTACK, 26, STACK
        ARGFRAME IOVERLAY, 0, STATIC
        ARGFRAME DOVERLAY, 0, STATIC
        FUNCALL GenericApp_ProcessEvent, HalUARTWrite
        LOCFRAME ISTACK, 0, STACK
        LOCFRAME PSTACK, 0, STACK
        LOCFRAME XSTACK, 26, STACK
        LOCFRAME IOVERLAY, 0, STATIC
        LOCFRAME DOVERLAY, 0, STATIC
        ARGFRAME ISTACK, 0, STACK
        ARGFRAME PSTACK, 0, STACK
        ARGFRAME XSTACK, 26, STACK
        ARGFRAME IOVERLAY, 0, STATIC
        ARGFRAME DOVERLAY, 0, STATIC
        FUNCALL GenericApp_ProcessEvent, HalLedSet
        LOCFRAME ISTACK, 0, STACK
        LOCFRAME PSTACK, 0, STACK
        LOCFRAME XSTACK, 26, STACK
        LOCFRAME IOVERLAY, 0, STATIC
        LOCFRAME DOVERLAY, 0, STATIC
        ARGFRAME ISTACK, 0, STACK
        ARGFRAME PSTACK, 0, STACK
        ARGFRAME XSTACK, 26, STACK
        ARGFRAME IOVERLAY, 0, STATIC
        ARGFRAME DOVERLAY, 0, STATIC
        FUNCALL GenericApp_ProcessEvent, HalUARTWrite
        LOCFRAME ISTACK, 0, STACK
        LOCFRAME PSTACK, 0, STACK
        LOCFRAME XSTACK, 26, STACK
        LOCFRAME IOVERLAY, 0, STATIC
        LOCFRAME DOVERLAY, 0, STATIC
        ARGFRAME ISTACK, 0, STACK
        ARGFRAME PSTACK, 0, STACK
        ARGFRAME XSTACK, 26, STACK
        ARGFRAME IOVERLAY, 0, STATIC
        ARGFRAME DOVERLAY, 0, STATIC
        FUNCALL GenericApp_ProcessEvent, HalLedSet
        LOCFRAME ISTACK, 0, STACK
        LOCFRAME PSTACK, 0, STACK
        LOCFRAME XSTACK, 26, STACK
        LOCFRAME IOVERLAY, 0, STATIC
        LOCFRAME DOVERLAY, 0, STATIC
        ARGFRAME ISTACK, 0, STACK
        ARGFRAME PSTACK, 0, STACK
        ARGFRAME XSTACK, 26, STACK
        ARGFRAME IOVERLAY, 0, STATIC
        ARGFRAME DOVERLAY, 0, STATIC
        FUNCALL GenericApp_ProcessEvent, osal_strlen
        LOCFRAME ISTACK, 0, STACK
        LOCFRAME PSTACK, 0, STACK
        LOCFRAME XSTACK, 31, STACK
        LOCFRAME IOVERLAY, 0, STATIC
        LOCFRAME DOVERLAY, 0, STATIC
        ARGFRAME ISTACK, 0, STACK
        ARGFRAME PSTACK, 0, STACK
        ARGFRAME XSTACK, 31, STACK
        ARGFRAME IOVERLAY, 0, STATIC
        ARGFRAME DOVERLAY, 0, STATIC
        FUNCALL GenericApp_ProcessEvent, AF_DataRequest
        LOCFRAME ISTACK, 0, STACK
        LOCFRAME PSTACK, 0, STACK
        LOCFRAME XSTACK, 35, STACK
        LOCFRAME IOVERLAY, 0, STATIC
        LOCFRAME DOVERLAY, 0, STATIC
        ARGFRAME ISTACK, 0, STACK
        ARGFRAME PSTACK, 0, STACK
        ARGFRAME XSTACK, 35, STACK
        ARGFRAME IOVERLAY, 0, STATIC
        ARGFRAME DOVERLAY, 0, STATIC
        FUNCALL GenericApp_ProcessEvent, osal_start_timerEx
        LOCFRAME ISTACK, 0, STACK
        LOCFRAME PSTACK, 0, STACK
        LOCFRAME XSTACK, 26, STACK
        LOCFRAME IOVERLAY, 0, STATIC
        LOCFRAME DOVERLAY, 0, STATIC
        ARGFRAME ISTACK, 0, STACK
        ARGFRAME PSTACK, 0, STACK
        ARGFRAME XSTACK, 26, STACK
        ARGFRAME IOVERLAY, 0, STATIC
        ARGFRAME DOVERLAY, 0, STATIC
        MOV     A,#-0xe
        LCALL   ?BANKED_ENTER_XDATA
        CFI DPH0 load(1, XDATA, add(CFA_XSP16, literal(-1)))
        CFI DPL0 load(1, XDATA, add(CFA_XSP16, literal(-2)))
        CFI ?BRET_EXT load(1, XDATA, add(CFA_XSP16, literal(-3)))
        CFI ?RET_HIGH load(1, XDATA, add(CFA_XSP16, literal(-4)))
        CFI ?RET_LOW load(1, XDATA, add(CFA_XSP16, literal(-5)))
        CFI R7 load(1, XDATA, add(CFA_XSP16, literal(-6)))
        CFI V5 load(1, XDATA, add(CFA_XSP16, literal(-7)))
        CFI V4 load(1, XDATA, add(CFA_XSP16, literal(-8)))
        CFI V3 load(1, XDATA, add(CFA_XSP16, literal(-9)))
        CFI V2 load(1, XDATA, add(CFA_XSP16, literal(-10)))
        CFI V1 load(1, XDATA, add(CFA_XSP16, literal(-11)))
        CFI V0 load(1, XDATA, add(CFA_XSP16, literal(-12)))
        CFI VB load(1, XDATA, add(CFA_XSP16, literal(-13)))
        CFI R6 load(1, XDATA, add(CFA_XSP16, literal(-14)))
        CFI CFA_SP SP+0
        CFI CFA_XSP16 add(XSP16, 14)
        ; Saved register size: 14
        ; Auto size: 12
        MOV     A,#-0xc
        LCALL   ?ALLOC_XSTACK8
        CFI CFA_XSP16 add(XSP16, 26)
        MOV     ?V0 + 0,R2
        MOV     ?V0 + 1,R3
//  255   afIncomingMSGPacket_t *MSGpkt;
//  256   afDataConfirm_t *afDataConfirm;
//  257 
//  258   // Data Confirmation message fields
//  259   byte sentEP;
//  260   ZStatus_t sentStatus;
//  261   byte sentTransID;       // This should match the value sent
//  262   (void)task_id;  // Intentionally unreferenced parameter
//  263 
//  264   if ( events & SYS_EVENT_MSG )
        MOV     A,R3
        ANL     A,#0x80
        JNZ     $+5
        LJMP    ??GenericApp_ProcessEvent_0 & 0xFFFF
//  265   {
//  266     MSGpkt = (afIncomingMSGPacket_t *)osal_msg_receive( GenericApp_TaskID );
        ; Setup parameters for call to function osal_msg_receive
        SJMP    ??GenericApp_ProcessEvent_1
//  267     while ( MSGpkt )
//  268     {
//  269       switch ( MSGpkt->hdr.event )
//  270       {
//  271         case ZDO_CB_MSG:
//  272           GenericApp_ProcessZDOMsgs( (zdoIncomingMsg_t *)MSGpkt );
//  273           break;
//  274         // °´Ľü¸Ä±äµÄ´¦Ŕí
//  275         case KEY_CHANGE:
//  276 //          // ÁÁµĆ
//  277 //          HalLedBlink(HAL_LED_2,1,HAL_LED_DEFAULT_DUTY_CYCLE, HAL_LED_DEFAULT_FLASH_TIME);
//  278 //          // ·˘ËÍ´®żÚĘýľÝ
//  279 //          HalUARTWrite(0,"hello!",6);
//  280           GenericApp_HandleKeys( ((keyChange_t *)MSGpkt)->state, ((keyChange_t *)MSGpkt)->keys );
//  281           break;
//  282 
//  283         case AF_DATA_CONFIRM_CMD:
//  284           // This message is received as a confirmation of a data packet sent.
//  285           // The status is of ZStatus_t type [defined in ZComDef.h]
//  286           // The message fields are defined in AF.h
//  287           afDataConfirm = (afDataConfirm_t *)MSGpkt;
//  288           sentEP = afDataConfirm->endpoint;
//  289           sentStatus = afDataConfirm->hdr.status;
//  290           sentTransID = afDataConfirm->transID;
//  291           (void)sentEP;
//  292           (void)sentTransID;
//  293 
//  294           // Action taken when confirmation is received.
//  295           if ( sentStatus != ZSuccess )
//  296           {
//  297             // The data wasn't delivered -- Do something
//  298           }
//  299           break;
//  300 
//  301 //        case AF_INCOMING_MSG_CMD:
//  302 //          GenericApp_MessageMSGCB( MSGpkt );
//  303 //          break;
//  304 
//  305         case ZDO_STATE_CHANGE:
//  306           break;
//  307           GenericApp_NwkState = (devStates_t)(MSGpkt->hdr.status);
//  308           if ( (GenericApp_NwkState == DEV_ZB_COORD)
//  309               || (GenericApp_NwkState == DEV_ROUTER)
//  310               || (GenericApp_NwkState == DEV_END_DEVICE) )
//  311           {
//  312             // Start sending "the" message in a regular interval.
//  313             osal_start_timerEx( GenericApp_TaskID,
//  314                                 GENERICAPP_SEND_MSG_EVT,
//  315                                 GENERICAPP_SEND_MSG_TIMEOUT );
//  316           }
//  317 //          if(GenericApp_NwkState == DEV_ZB_COORD){
//  318 //            D3 = 1;
//  319 //          }else if(GenericApp_NwkState == DEV_ROUTER){
//  320 //            D4 = 1;
//  321 //          }else if(GenericApp_NwkState == DEV_END_DEVICE){
//  322 //            D5 = 1;
//  323 //          }
//  324           break;
//  325         case CMD_SERIAL_MSG://˝ÓĘŐµ˝´®żÚĐĹĎ˘´¦ŔíşŻĘý
//  326           HalLedBlink(HAL_LED_1,1,HAL_LED_DEFAULT_DUTY_CYCLE, HAL_LED_DEFAULT_FLASH_TIME);
//  327           GenericApp_UartRxMsgs( (mtOSALSerialData_t *)MSGpkt );
//  328           break;
//  329         case AF_INCOMING_MSG_CMD:
//  330           GenericApp_MessageMSGCB((afIncomingMSGPacket_t *)MSGpkt);
??GenericApp_ProcessEvent_2:
        MOV     DPTR,#??p2pCnt
        LCALL   ?Subroutine1 & 0xFFFF
??CrossCallReturnLabel_3:
        ; Setup parameters for call to function HalUARTWrite
        MOV     DPTR,#??p2pCnt
        LCALL   ?Subroutine0 & 0xFFFF
??CrossCallReturnLabel_0:
        MOV     R1,#0x1
??GenericApp_ProcessEvent_3:
        LCALL   ??HalLedSet?relay
//  331           break;
//  332         default:
//  333           break;
//  334       }
//  335 
//  336       // Release the memory
//  337       osal_msg_deallocate( (uint8 *)MSGpkt );
??GenericApp_ProcessEvent_4:
        ; Setup parameters for call to function osal_msg_deallocate
        MOV     A,R6
        MOV     R2,A
        MOV     A,R7
        MOV     R3,A
        LCALL   ??osal_msg_deallocate?relay
//  338 
//  339       // Next
//  340       MSGpkt = (afIncomingMSGPacket_t *)osal_msg_receive( GenericApp_TaskID );
        ; Setup parameters for call to function osal_msg_receive
??GenericApp_ProcessEvent_1:
        MOV     DPTR,#GenericApp_TaskID
        MOVX    A,@DPTR
        MOV     R1,A
        LCALL   ??osal_msg_receive?relay
        MOV     ?V0 + 2,R2
        MOV     ?V0 + 3,R3
        MOV     R6,?V0 + 2
        MOV     R7,?V0 + 3
        MOV     A,R6
        ORL     A,R7
        JNZ     $+5
        LJMP    ??GenericApp_ProcessEvent_5 & 0xFFFF
        MOV     DPL,R6
        MOV     DPH,R7
        MOVX    A,@DPTR
        DEC     A
        JNZ     $+5
        LJMP    ??GenericApp_ProcessEvent_6 & 0xFFFF
        ADD     A,#-0x19
        JNZ     $+5
        LJMP    ??GenericApp_ProcessEvent_7 & 0xFFFF
        ADD     A,#0x5a
        JNZ     $+5
        LJMP    ??GenericApp_ProcessEvent_8 & 0xFFFF
        ADD     A,#-0x13
        JNZ     ??GenericApp_ProcessEvent_4
        MOV     A,R6
        ADD     A,#0xc
        MOV     DPL,A
        MOV     A,R7
        ADDC    A,#0x0
        MOV     DPH,A
        LCALL   ?Subroutine2 & 0xFFFF
??CrossCallReturnLabel_6:
        LCALL   ?US_SWITCH_SPARSE
`?<Jumptable for GenericApp_ProcessEvent>_0`:
        DATA
        DATA16
        DATA
        DATA16
        DATA
        DATA16
        DW        0
        DATA
        DATA16
        DATA
        DATA16
        DATA
        DATA16
        DW        2
        DATA
        DATA16
        DATA
        DATA16
        DATA
        DATA16
        DW        32774
        DATA
        DATA16
        DATA
        DATA16
        DATA
        DATA16
        DW        ??GenericApp_ProcessEvent_9
        DATA
        DATA16
        DATA
        DATA16
        DATA
        DATA16
        DW        32800
        DATA
        DATA16
        DATA
        DATA16
        DATA
        DATA16
        DW        ??GenericApp_ProcessEvent_10
        DATA
        DATA16
        DATA
        DATA16
        DW        ??GenericApp_ProcessEvent_4
        CODE
??GenericApp_ProcessEvent_9:
        ; Setup parameters for call to function ZDO_ParseEPListRsp
        MOV     A,R6
        MOV     R2,A
        MOV     A,R7
        MOV     R3,A
        LCALL   ??ZDO_ParseEPListRsp?relay
        MOV     ?V0 + 2,R2
        MOV     ?V0 + 3,R3
        MOV     A,R2
        ORL     A,?V0 + 3
        JZ      ??GenericApp_ProcessEvent_4
        MOV     DPL,R2
        MOV     DPH,R3
        MOVX    A,@DPTR
        JNZ     ??GenericApp_ProcessEvent_11
        INC     DPTR
        INC     DPTR
        INC     DPTR
        MOVX    A,@DPTR
        JZ      ??GenericApp_ProcessEvent_11
        MOV     DPTR,#GenericApp_DstAddr + 8
        MOV     A,#0x2
        MOVX    @DPTR,A
        MOV     DPL,R2
        MOV     DPH,R3
        INC     DPTR
        MOVX    A,@DPTR
        MOV     R0,A
        INC     DPTR
        MOVX    A,@DPTR
        MOV     R1,A
        MOV     DPTR,#GenericApp_DstAddr
        MOV     A,R0
        MOVX    @DPTR,A
        INC     DPTR
        MOV     A,R1
        MOVX    @DPTR,A
        MOV     DPL,R2
        MOV     DPH,R3
        INC     DPTR
        INC     DPTR
        INC     DPTR
        INC     DPTR
        MOVX    A,@DPTR
        MOV     DPTR,#GenericApp_DstAddr + 9
        MOVX    @DPTR,A
        ; Setup parameters for call to function HalLedSet
        MOV     R2,#0x1
        MOV     R1,#0x8
        LCALL   ??HalLedSet?relay
??GenericApp_ProcessEvent_11:
        ; Setup parameters for call to function osal_mem_free
        MOV     R2,?V0 + 2
        MOV     R3,?V0 + 3
        LCALL   ??osal_mem_free?relay
        LJMP    ??GenericApp_ProcessEvent_4 & 0xFFFF
??GenericApp_ProcessEvent_10:
        MOV     A,R6
        ADD     A,#0x13
        MOV     DPL,A
        MOV     A,R7
        ADDC    A,#0x0
        MOV     DPH,A
        MOVX    A,@DPTR
        MOV     R0,A
        INC     DPTR
        MOVX    A,@DPTR
        MOV     DPH,A
        MOV     DPL,R0
        MOVX    A,@DPTR
        JNZ     ??GenericApp_ProcessEvent_12
        ; Setup parameters for call to function HalLedSet
        MOV     R2,#0x1
??GenericApp_ProcessEvent_13:
        MOV     R1,#0x8
        LJMP    ??GenericApp_ProcessEvent_3 & 0xFFFF
??GenericApp_ProcessEvent_12:
        ; Setup parameters for call to function HalLedSet
        MOV     R2,#0x4
        SJMP    ??GenericApp_ProcessEvent_13
??GenericApp_ProcessEvent_8:
        ; Setup parameters for call to function GenericApp_HandleKeys
        INC     DPTR
        INC     DPTR
        INC     DPTR
        MOVX    A,@DPTR
        MOV     R2,A
        MOV     DPL,R6
        MOV     DPH,R7
        INC     DPTR
        INC     DPTR
        MOVX    A,@DPTR
        MOV     R1,A
        LCALL   ??GenericApp_HandleKeys?relay
        LJMP    ??GenericApp_ProcessEvent_4 & 0xFFFF
??GenericApp_ProcessEvent_6:
        ; Setup parameters for call to function HalLedBlink
        MOV     R4,#-0x18
        MOV     R5,#0x3
        MOV     R3,#0x5
        MOV     R2,#0x1
        MOV     R1,#0x1
        LCALL   ??HalLedBlink?relay
        MOV     DPL,R6
        MOV     DPH,R7
        INC     DPTR
        INC     DPTR
        MOVX    A,@DPTR
        MOV     R0,A
        INC     DPTR
        MOVX    A,@DPTR
        MOV     R1,A
        MOV     DPL,R0
        MOV     DPH,R1
        ; Setup parameters for call to function HalUARTWrite
        MOVX    A,@DPTR
        MOV     R4,A
        MOV     R5,#0x0
        INC     DPTR
        MOV     R2,DPL
        MOV     R3,DPH
        MOV     R1,#0x0
        LCALL   ??HalUARTWrite?relay
        ; Setup parameters for call to function HalUARTWrite
        MOV     R4,#0x2
        MOV     R5,#0x0
        MOV     R2,#`?<Constant "\\r\\n">` & 0xff
        MOV     R3,#(`?<Constant "\\r\\n">` >> 8) & 0xff
        MOV     R1,#0x0
        LCALL   ??HalUARTWrite?relay
        LJMP    ??GenericApp_ProcessEvent_4 & 0xFFFF
??GenericApp_ProcessEvent_7:
        INC     DPTR
        INC     DPTR
        INC     DPTR
        INC     DPTR
        LCALL   ?Subroutine2 & 0xFFFF
//  341     }
??CrossCallReturnLabel_7:
        LCALL   ?US_SWITCH_DENSE
`?<Jumptable for GenericApp_ProcessEvent>_1`:
        DATA
        DATA16
        DATA
        DATA16
        DW        2
        DATA
        DATA8
        DATA
        DATA8
        DB        2
        DATA
        DATA16
        DATA
        DATA16
        DW        ??GenericApp_ProcessEvent_4
        DATA
        DATA16
        DATA
        DATA16
        DW        ??GenericApp_ProcessEvent_2
        DATA
        DATA16
        DATA
        DATA16
        DW        ??GenericApp_ProcessEvent_14
        DATA
        DATA16
        DATA
        DATA16
        DW        ??GenericApp_ProcessEvent_15
        CODE
??GenericApp_ProcessEvent_15:
        MOV     DPTR,#??gcCnt
        LCALL   ?Subroutine1 & 0xFFFF
??CrossCallReturnLabel_4:
        ; Setup parameters for call to function HalUARTWrite
        MOV     DPTR,#??gcCnt
        LCALL   ?Subroutine0 & 0xFFFF
??CrossCallReturnLabel_1:
        MOV     R1,#0x4
        LJMP    ??GenericApp_ProcessEvent_3 & 0xFFFF
??GenericApp_ProcessEvent_14:
        MOV     DPTR,#??bcCnt
        LCALL   ?Subroutine1 & 0xFFFF
??CrossCallReturnLabel_5:
        ; Setup parameters for call to function HalUARTWrite
        MOV     DPTR,#??bcCnt
        LCALL   ?Subroutine0 & 0xFFFF
??CrossCallReturnLabel_2:
        MOV     R1,#0x2
        LJMP    ??GenericApp_ProcessEvent_3 & 0xFFFF
//  342 
//  343     // return unprocessed events
//  344     return (events ^ SYS_EVENT_MSG);
??GenericApp_ProcessEvent_5:
        MOV     R2,?V0 + 0
        MOV     A,?V0 + 1
        XRL     A,#0x80
        MOV     R3,A
        LJMP    ??GenericApp_ProcessEvent_16 & 0xFFFF
//  345   }
//  346 
//  347   // Send a message out - This event is generated by a timer
//  348   //  (setup in GenericApp_Init()).
//  349   if ( events & GENERICAPP_SEND_MSG_EVT )
??GenericApp_ProcessEvent_0:
        MOV     A,R2
        MOV     C,0xE0 /* A   */.0
        JC      $+5
        LJMP    ??GenericApp_ProcessEvent_17 & 0xFFFF
//  350   {
//  351     // Send "the" message
//  352     GenericApp_SendTheMessage();
        MOV     DPL,?XSP + 0
        MOV     DPH,?XSP + 1
        MOV     R4,DPL
        MOV     R5,DPH
        MOV     DPH,#(`?<Constant "Hello World">` >> 8) & 0xff
        MOV     DPL,#`?<Constant "Hello World">` & 0xff
        MOV     A,#0xc
        LCALL   ?MOVE_LONG8_XDATA_XDATA
        ; Setup parameters for call to function AF_DataRequest
        MOV     ?V0 + 2,#0x1e
        MOV     R0,#?V0 + 2
        LCALL   ?PUSH_XSTACK_I_ONE
        CFI CFA_XSP16 add(XSP16, 27)
        MOV     ?V0 + 2,#GenericApp_TransID & 0xff
        MOV     ?V0 + 3,#(GenericApp_TransID >> 8) & 0xff
        MOV     R0,#?V0 + 2
        LCALL   ?PUSH_XSTACK_I_TWO
        CFI CFA_XSP16 add(XSP16, 29)
        MOV     A,#0x3
        LCALL   ?XSTACK_DISP0_8
        MOV     ?V0 + 2,DPL
        MOV     ?V0 + 3,DPH
        MOV     R0,#?V0 + 2
        LCALL   ?PUSH_XSTACK_I_TWO
        CFI CFA_XSP16 add(XSP16, 31)
        ; Setup parameters for call to function osal_strlen
        MOV     A,#0x5
        LCALL   ?XSTACK_DISP0_8
        MOV     R2,DPL
        MOV     R3,DPH
        LCALL   ??osal_strlen?relay
        MOV     A,R2
        ADD     A,#0x1
        MOV     ?V0 + 2,A
        CLR     A
        ADDC    A,#0x0
        MOV     ?V0 + 3,A
        MOV     R0,#?V0 + 2
        LCALL   ?PUSH_XSTACK_I_TWO
        CFI CFA_XSP16 add(XSP16, 33)
        MOV     ?V0 + 2,#0x1
        MOV     ?V0 + 3,#0x0
        MOV     R0,#?V0 + 2
        LCALL   ?PUSH_XSTACK_I_TWO
        CFI CFA_XSP16 add(XSP16, 35)
        MOV     R1,#0x20
        MOV     R4,#GenericApp_epDesc & 0xff
        MOV     R5,#(GenericApp_epDesc >> 8) & 0xff
        MOV     R2,#GenericApp_DstAddr & 0xff
        MOV     R3,#(GenericApp_DstAddr >> 8) & 0xff
        LCALL   ??AF_DataRequest?relay
        MOV     A,#0x9
        LCALL   ?DEALLOC_XSTACK8
        CFI CFA_XSP16 add(XSP16, 26)
//  353 
//  354     // Setup to send message again
//  355     osal_start_timerEx( GenericApp_TaskID,
//  356                         GENERICAPP_SEND_MSG_EVT,
//  357                         GENERICAPP_SEND_MSG_TIMEOUT );
        ; Setup parameters for call to function osal_start_timerEx
        MOV     R4,#-0x78
        MOV     R5,#0x13
        MOV     R2,#0x1
        MOV     R3,#0x0
        MOV     DPTR,#GenericApp_TaskID
        MOVX    A,@DPTR
        MOV     R1,A
        LCALL   ??osal_start_timerEx?relay
//  358 
//  359     // return unprocessed events
//  360     return (events ^ GENERICAPP_SEND_MSG_EVT);
        MOV     A,?V0 + 0
        XRL     A,#0x1
        MOV     R2,A
        MOV     R3,?V0 + 1
        SJMP    ??GenericApp_ProcessEvent_16
//  361   }
//  362 
//  363 
//  364 #if defined( IAR_ARMCM3_LM )
//  365   // Receive a message from the RTOS queue
//  366   if ( events & GENERICAPP_RTOS_MSG_EVT )
//  367   {
//  368     // Process message from RTOS queue
//  369     GenericApp_ProcessRtosMessage();
//  370 
//  371     // return unprocessed events
//  372     return (events ^ GENERICAPP_RTOS_MSG_EVT);
//  373   }
//  374 #endif
//  375 
//  376   // Discard unknown events
//  377   return 0;
??GenericApp_ProcessEvent_17:
        MOV     R2,#0x0
        MOV     R3,#0x0
??GenericApp_ProcessEvent_16:
        MOV     A,#0xc
        LCALL   ?DEALLOC_XSTACK8
        CFI CFA_XSP16 add(XSP16, 14)
        MOV     R7,#0x6
        LJMP    ?BANKED_LEAVE_XDATA
        CFI EndBlock cfiBlock1
//  378 }

        RSEG BANKED_CODE:CODE:NOROOT(0)
?Subroutine2:
        CFI Block cfiCond2 Using cfiCommon0
        CFI NoFunction
        CFI Conditional ??CrossCallReturnLabel_6
        CFI R6 load(1, XDATA, add(CFA_XSP16, literal(-14)))
        CFI VB load(1, XDATA, add(CFA_XSP16, literal(-13)))
        CFI V0 load(1, XDATA, add(CFA_XSP16, literal(-12)))
        CFI V1 load(1, XDATA, add(CFA_XSP16, literal(-11)))
        CFI V2 load(1, XDATA, add(CFA_XSP16, literal(-10)))
        CFI V3 load(1, XDATA, add(CFA_XSP16, literal(-9)))
        CFI V4 load(1, XDATA, add(CFA_XSP16, literal(-8)))
        CFI V5 load(1, XDATA, add(CFA_XSP16, literal(-7)))
        CFI R7 load(1, XDATA, add(CFA_XSP16, literal(-6)))
        CFI ?RET_LOW load(1, XDATA, add(CFA_XSP16, literal(-5)))
        CFI ?RET_HIGH load(1, XDATA, add(CFA_XSP16, literal(-4)))
        CFI ?BRET_EXT load(1, XDATA, add(CFA_XSP16, literal(-3)))
        CFI DPL0 load(1, XDATA, add(CFA_XSP16, literal(-2)))
        CFI DPH0 load(1, XDATA, add(CFA_XSP16, literal(-1)))
        CFI CFA_SP SP+0
        CFI CFA_XSP16 add(XSP16, 26)
        CFI Block cfiCond3 Using cfiCommon0
        CFI (cfiCond3) NoFunction
        CFI (cfiCond3) Conditional ??CrossCallReturnLabel_7
        CFI (cfiCond3) R6 load(1, XDATA, add(CFA_XSP16, literal(-14)))
        CFI (cfiCond3) VB load(1, XDATA, add(CFA_XSP16, literal(-13)))
        CFI (cfiCond3) V0 load(1, XDATA, add(CFA_XSP16, literal(-12)))
        CFI (cfiCond3) V1 load(1, XDATA, add(CFA_XSP16, literal(-11)))
        CFI (cfiCond3) V2 load(1, XDATA, add(CFA_XSP16, literal(-10)))
        CFI (cfiCond3) V3 load(1, XDATA, add(CFA_XSP16, literal(-9)))
        CFI (cfiCond3) V4 load(1, XDATA, add(CFA_XSP16, literal(-8)))
        CFI (cfiCond3) V5 load(1, XDATA, add(CFA_XSP16, literal(-7)))
        CFI (cfiCond3) R7 load(1, XDATA, add(CFA_XSP16, literal(-6)))
        CFI (cfiCond3) ?RET_LOW load(1, XDATA, add(CFA_XSP16, literal(-5)))
        CFI (cfiCond3) ?RET_HIGH load(1, XDATA, add(CFA_XSP16, literal(-4)))
        CFI (cfiCond3) ?BRET_EXT load(1, XDATA, add(CFA_XSP16, literal(-3)))
        CFI (cfiCond3) DPL0 load(1, XDATA, add(CFA_XSP16, literal(-2)))
        CFI (cfiCond3) DPH0 load(1, XDATA, add(CFA_XSP16, literal(-1)))
        CFI (cfiCond3) CFA_SP SP+0
        CFI (cfiCond3) CFA_XSP16 add(XSP16, 26)
        CFI Block cfiPicker4 Using cfiCommon1
        CFI (cfiPicker4) NoFunction
        CFI (cfiPicker4) Picker
        MOVX    A,@DPTR
        MOV     ?V0 + 2,A
        INC     DPTR
        MOVX    A,@DPTR
        MOV     ?V0 + 3,A
        MOV     R0,#?V0 + 2
        RET
        CFI EndBlock cfiCond2
        CFI EndBlock cfiCond3
        CFI EndBlock cfiPicker4

        RSEG BANKED_CODE:CODE:NOROOT(0)
?Subroutine1:
        CFI Block cfiCond5 Using cfiCommon0
        CFI NoFunction
        CFI Conditional ??CrossCallReturnLabel_3
        CFI R6 load(1, XDATA, add(CFA_XSP16, literal(-14)))
        CFI VB load(1, XDATA, add(CFA_XSP16, literal(-13)))
        CFI V0 load(1, XDATA, add(CFA_XSP16, literal(-12)))
        CFI V1 load(1, XDATA, add(CFA_XSP16, literal(-11)))
        CFI V2 load(1, XDATA, add(CFA_XSP16, literal(-10)))
        CFI V3 load(1, XDATA, add(CFA_XSP16, literal(-9)))
        CFI V4 load(1, XDATA, add(CFA_XSP16, literal(-8)))
        CFI V5 load(1, XDATA, add(CFA_XSP16, literal(-7)))
        CFI R7 load(1, XDATA, add(CFA_XSP16, literal(-6)))
        CFI ?RET_LOW load(1, XDATA, add(CFA_XSP16, literal(-5)))
        CFI ?RET_HIGH load(1, XDATA, add(CFA_XSP16, literal(-4)))
        CFI ?BRET_EXT load(1, XDATA, add(CFA_XSP16, literal(-3)))
        CFI DPL0 load(1, XDATA, add(CFA_XSP16, literal(-2)))
        CFI DPH0 load(1, XDATA, add(CFA_XSP16, literal(-1)))
        CFI CFA_SP SP+0
        CFI CFA_XSP16 add(XSP16, 26)
        CFI Block cfiCond6 Using cfiCommon0
        CFI (cfiCond6) NoFunction
        CFI (cfiCond6) Conditional ??CrossCallReturnLabel_4
        CFI (cfiCond6) R6 load(1, XDATA, add(CFA_XSP16, literal(-14)))
        CFI (cfiCond6) VB load(1, XDATA, add(CFA_XSP16, literal(-13)))
        CFI (cfiCond6) V0 load(1, XDATA, add(CFA_XSP16, literal(-12)))
        CFI (cfiCond6) V1 load(1, XDATA, add(CFA_XSP16, literal(-11)))
        CFI (cfiCond6) V2 load(1, XDATA, add(CFA_XSP16, literal(-10)))
        CFI (cfiCond6) V3 load(1, XDATA, add(CFA_XSP16, literal(-9)))
        CFI (cfiCond6) V4 load(1, XDATA, add(CFA_XSP16, literal(-8)))
        CFI (cfiCond6) V5 load(1, XDATA, add(CFA_XSP16, literal(-7)))
        CFI (cfiCond6) R7 load(1, XDATA, add(CFA_XSP16, literal(-6)))
        CFI (cfiCond6) ?RET_LOW load(1, XDATA, add(CFA_XSP16, literal(-5)))
        CFI (cfiCond6) ?RET_HIGH load(1, XDATA, add(CFA_XSP16, literal(-4)))
        CFI (cfiCond6) ?BRET_EXT load(1, XDATA, add(CFA_XSP16, literal(-3)))
        CFI (cfiCond6) DPL0 load(1, XDATA, add(CFA_XSP16, literal(-2)))
        CFI (cfiCond6) DPH0 load(1, XDATA, add(CFA_XSP16, literal(-1)))
        CFI (cfiCond6) CFA_SP SP+0
        CFI (cfiCond6) CFA_XSP16 add(XSP16, 26)
        CFI Block cfiCond7 Using cfiCommon0
        CFI (cfiCond7) NoFunction
        CFI (cfiCond7) Conditional ??CrossCallReturnLabel_5
        CFI (cfiCond7) R6 load(1, XDATA, add(CFA_XSP16, literal(-14)))
        CFI (cfiCond7) VB load(1, XDATA, add(CFA_XSP16, literal(-13)))
        CFI (cfiCond7) V0 load(1, XDATA, add(CFA_XSP16, literal(-12)))
        CFI (cfiCond7) V1 load(1, XDATA, add(CFA_XSP16, literal(-11)))
        CFI (cfiCond7) V2 load(1, XDATA, add(CFA_XSP16, literal(-10)))
        CFI (cfiCond7) V3 load(1, XDATA, add(CFA_XSP16, literal(-9)))
        CFI (cfiCond7) V4 load(1, XDATA, add(CFA_XSP16, literal(-8)))
        CFI (cfiCond7) V5 load(1, XDATA, add(CFA_XSP16, literal(-7)))
        CFI (cfiCond7) R7 load(1, XDATA, add(CFA_XSP16, literal(-6)))
        CFI (cfiCond7) ?RET_LOW load(1, XDATA, add(CFA_XSP16, literal(-5)))
        CFI (cfiCond7) ?RET_HIGH load(1, XDATA, add(CFA_XSP16, literal(-4)))
        CFI (cfiCond7) ?BRET_EXT load(1, XDATA, add(CFA_XSP16, literal(-3)))
        CFI (cfiCond7) DPL0 load(1, XDATA, add(CFA_XSP16, literal(-2)))
        CFI (cfiCond7) DPH0 load(1, XDATA, add(CFA_XSP16, literal(-1)))
        CFI (cfiCond7) CFA_SP SP+0
        CFI (cfiCond7) CFA_XSP16 add(XSP16, 26)
        CFI Block cfiPicker8 Using cfiCommon1
        CFI (cfiPicker8) NoFunction
        CFI (cfiPicker8) Picker
        MOVX    A,@DPTR
        ADD     A,#0x1
        MOVX    @DPTR,A
        INC     DPTR
        MOVX    A,@DPTR
        ADDC    A,#0x0
        MOVX    @DPTR,A
        RET
        CFI EndBlock cfiCond5
        CFI EndBlock cfiCond6
        CFI EndBlock cfiCond7
        CFI EndBlock cfiPicker8

        RSEG BANKED_CODE:CODE:NOROOT(0)
?Subroutine0:
        CFI Block cfiCond9 Using cfiCommon0
        CFI NoFunction
        CFI Conditional ??CrossCallReturnLabel_0
        CFI R6 load(1, XDATA, add(CFA_XSP16, literal(-14)))
        CFI VB load(1, XDATA, add(CFA_XSP16, literal(-13)))
        CFI V0 load(1, XDATA, add(CFA_XSP16, literal(-12)))
        CFI V1 load(1, XDATA, add(CFA_XSP16, literal(-11)))
        CFI V2 load(1, XDATA, add(CFA_XSP16, literal(-10)))
        CFI V3 load(1, XDATA, add(CFA_XSP16, literal(-9)))
        CFI V4 load(1, XDATA, add(CFA_XSP16, literal(-8)))
        CFI V5 load(1, XDATA, add(CFA_XSP16, literal(-7)))
        CFI R7 load(1, XDATA, add(CFA_XSP16, literal(-6)))
        CFI ?RET_LOW load(1, XDATA, add(CFA_XSP16, literal(-5)))
        CFI ?RET_HIGH load(1, XDATA, add(CFA_XSP16, literal(-4)))
        CFI ?BRET_EXT load(1, XDATA, add(CFA_XSP16, literal(-3)))
        CFI DPL0 load(1, XDATA, add(CFA_XSP16, literal(-2)))
        CFI DPH0 load(1, XDATA, add(CFA_XSP16, literal(-1)))
        CFI CFA_SP SP+0
        CFI CFA_XSP16 add(XSP16, 26)
        CFI Block cfiCond10 Using cfiCommon0
        CFI (cfiCond10) NoFunction
        CFI (cfiCond10) Conditional ??CrossCallReturnLabel_1
        CFI (cfiCond10) R6 load(1, XDATA, add(CFA_XSP16, literal(-14)))
        CFI (cfiCond10) VB load(1, XDATA, add(CFA_XSP16, literal(-13)))
        CFI (cfiCond10) V0 load(1, XDATA, add(CFA_XSP16, literal(-12)))
        CFI (cfiCond10) V1 load(1, XDATA, add(CFA_XSP16, literal(-11)))
        CFI (cfiCond10) V2 load(1, XDATA, add(CFA_XSP16, literal(-10)))
        CFI (cfiCond10) V3 load(1, XDATA, add(CFA_XSP16, literal(-9)))
        CFI (cfiCond10) V4 load(1, XDATA, add(CFA_XSP16, literal(-8)))
        CFI (cfiCond10) V5 load(1, XDATA, add(CFA_XSP16, literal(-7)))
        CFI (cfiCond10) R7 load(1, XDATA, add(CFA_XSP16, literal(-6)))
        CFI (cfiCond10) ?RET_LOW load(1, XDATA, add(CFA_XSP16, literal(-5)))
        CFI (cfiCond10) ?RET_HIGH load(1, XDATA, add(CFA_XSP16, literal(-4)))
        CFI (cfiCond10) ?BRET_EXT load(1, XDATA, add(CFA_XSP16, literal(-3)))
        CFI (cfiCond10) DPL0 load(1, XDATA, add(CFA_XSP16, literal(-2)))
        CFI (cfiCond10) DPH0 load(1, XDATA, add(CFA_XSP16, literal(-1)))
        CFI (cfiCond10) CFA_SP SP+0
        CFI (cfiCond10) CFA_XSP16 add(XSP16, 26)
        CFI Block cfiCond11 Using cfiCommon0
        CFI (cfiCond11) NoFunction
        CFI (cfiCond11) Conditional ??CrossCallReturnLabel_2
        CFI (cfiCond11) R6 load(1, XDATA, add(CFA_XSP16, literal(-14)))
        CFI (cfiCond11) VB load(1, XDATA, add(CFA_XSP16, literal(-13)))
        CFI (cfiCond11) V0 load(1, XDATA, add(CFA_XSP16, literal(-12)))
        CFI (cfiCond11) V1 load(1, XDATA, add(CFA_XSP16, literal(-11)))
        CFI (cfiCond11) V2 load(1, XDATA, add(CFA_XSP16, literal(-10)))
        CFI (cfiCond11) V3 load(1, XDATA, add(CFA_XSP16, literal(-9)))
        CFI (cfiCond11) V4 load(1, XDATA, add(CFA_XSP16, literal(-8)))
        CFI (cfiCond11) V5 load(1, XDATA, add(CFA_XSP16, literal(-7)))
        CFI (cfiCond11) R7 load(1, XDATA, add(CFA_XSP16, literal(-6)))
        CFI (cfiCond11) ?RET_LOW load(1, XDATA, add(CFA_XSP16, literal(-5)))
        CFI (cfiCond11) ?RET_HIGH load(1, XDATA, add(CFA_XSP16, literal(-4)))
        CFI (cfiCond11) ?BRET_EXT load(1, XDATA, add(CFA_XSP16, literal(-3)))
        CFI (cfiCond11) DPL0 load(1, XDATA, add(CFA_XSP16, literal(-2)))
        CFI (cfiCond11) DPH0 load(1, XDATA, add(CFA_XSP16, literal(-1)))
        CFI (cfiCond11) CFA_SP SP+0
        CFI (cfiCond11) CFA_XSP16 add(XSP16, 26)
        CFI Block cfiPicker12 Using cfiCommon1
        CFI (cfiPicker12) NoFunction
        CFI (cfiPicker12) Picker
        MOVX    A,@DPTR
        MOV     R4,A
        INC     DPTR
        MOVX    A,@DPTR
        MOV     R5,A
        MOV     A,R6
        ADD     A,#0x22
        MOV     DPL,A
        MOV     A,R7
        ADDC    A,#0x0
        MOV     DPH,A
        MOVX    A,@DPTR
        MOV     R2,A
        INC     DPTR
        MOVX    A,@DPTR
        MOV     R3,A
        MOV     R1,#0x0
        LCALL   ??HalUARTWrite?relay
        ; Setup parameters for call to function HalLedSet
        ; Setup parameters for call to function HalLedSet
        ; Setup parameters for call to function HalLedSet
        MOV     R2,#0x8
        RET
        CFI EndBlock cfiCond9
        CFI EndBlock cfiCond10
        CFI EndBlock cfiCond11
        CFI EndBlock cfiPicker12
//  379 
//  380 /*********************************************************************
//  381  * Event Generation Functions
//  382  */
//  383 
//  384 /*********************************************************************
//  385  * @fn      GenericApp_ProcessZDOMsgs()
//  386  *
//  387  * @brief   Process response messages
//  388  *
//  389  * @param   none
//  390  *
//  391  * @return  none
//  392  */
//  393 static void GenericApp_ProcessZDOMsgs( zdoIncomingMsg_t *inMsg )
//  394 {
//  395   switch ( inMsg->clusterID )
//  396   {
//  397     case End_Device_Bind_rsp:
//  398       if ( ZDO_ParseBindRsp( inMsg ) == ZSuccess )
//  399       {
//  400         // Light LED
//  401         HalLedSet( HAL_LED_4, HAL_LED_MODE_ON );
//  402       }
//  403 #if defined( BLINK_LEDS )
//  404       else
//  405       {
//  406         // Flash LED to show failure
//  407         HalLedSet ( HAL_LED_4, HAL_LED_MODE_FLASH );
//  408       }
//  409 #endif
//  410       break;
//  411 
//  412     case Match_Desc_rsp:
//  413       {
//  414         ZDO_ActiveEndpointRsp_t *pRsp = ZDO_ParseEPListRsp( inMsg );
//  415         if ( pRsp )
//  416         {
//  417           if ( pRsp->status == ZSuccess && pRsp->cnt )
//  418           {
//  419             GenericApp_DstAddr.addrMode = (afAddrMode_t)Addr16Bit;
//  420             GenericApp_DstAddr.addr.shortAddr = pRsp->nwkAddr;
//  421             // Take the first endpoint, Can be changed to search through endpoints
//  422             GenericApp_DstAddr.endPoint = pRsp->epList[0];
//  423 
//  424             // Light LED
//  425             HalLedSet( HAL_LED_4, HAL_LED_MODE_ON );
//  426           }
//  427           osal_mem_free( pRsp );
//  428         }
//  429       }
//  430       break;
//  431   }
//  432 }
//  433 
//  434 /*********************************************************************
//  435  * @fn      GenericApp_HandleKeys
//  436  *
//  437  * @brief   Handles all key events for this device.
//  438  *
//  439  * @param   shift - true if in shift/alt.
//  440  * @param   keys - bit field for key events. Valid entries:
//  441  *                 HAL_KEY_SW_4
//  442  *                 HAL_KEY_SW_3
//  443  *                 HAL_KEY_SW_2
//  444  *                 HAL_KEY_SW_1
//  445  *
//  446  * @return  none
//  447  */

        RSEG BANKED_CODE:CODE:NOROOT(0)
//  448 static void GenericApp_HandleKeys( uint8 shift, uint8 keys )
GenericApp_HandleKeys:
        CFI Block cfiBlock13 Using cfiCommon0
        CFI Function GenericApp_HandleKeys
        CODE
//  449 {
        FUNCALL GenericApp_HandleKeys, HalLedBlink
        LOCFRAME ISTACK, 0, STACK
        LOCFRAME PSTACK, 0, STACK
        LOCFRAME XSTACK, 32, STACK
        LOCFRAME IOVERLAY, 0, STATIC
        LOCFRAME DOVERLAY, 0, STATIC
        ARGFRAME ISTACK, 0, STACK
        ARGFRAME PSTACK, 0, STACK
        ARGFRAME XSTACK, 32, STACK
        ARGFRAME IOVERLAY, 0, STATIC
        ARGFRAME DOVERLAY, 0, STATIC
        FUNCALL GenericApp_HandleKeys, AF_DataRequest
        LOCFRAME ISTACK, 0, STACK
        LOCFRAME PSTACK, 0, STACK
        LOCFRAME XSTACK, 41, STACK
        LOCFRAME IOVERLAY, 0, STATIC
        LOCFRAME DOVERLAY, 0, STATIC
        ARGFRAME ISTACK, 0, STACK
        ARGFRAME PSTACK, 0, STACK
        ARGFRAME XSTACK, 41, STACK
        ARGFRAME IOVERLAY, 0, STATIC
        ARGFRAME DOVERLAY, 0, STATIC
        FUNCALL GenericApp_HandleKeys, HalLedBlink
        LOCFRAME ISTACK, 0, STACK
        LOCFRAME PSTACK, 0, STACK
        LOCFRAME XSTACK, 32, STACK
        LOCFRAME IOVERLAY, 0, STATIC
        LOCFRAME DOVERLAY, 0, STATIC
        ARGFRAME ISTACK, 0, STACK
        ARGFRAME PSTACK, 0, STACK
        ARGFRAME XSTACK, 32, STACK
        ARGFRAME IOVERLAY, 0, STATIC
        ARGFRAME DOVERLAY, 0, STATIC
        FUNCALL GenericApp_HandleKeys, AF_DataRequest
        LOCFRAME ISTACK, 0, STACK
        LOCFRAME PSTACK, 0, STACK
        LOCFRAME XSTACK, 41, STACK
        LOCFRAME IOVERLAY, 0, STATIC
        LOCFRAME DOVERLAY, 0, STATIC
        ARGFRAME ISTACK, 0, STACK
        ARGFRAME PSTACK, 0, STACK
        ARGFRAME XSTACK, 41, STACK
        ARGFRAME IOVERLAY, 0, STATIC
        ARGFRAME DOVERLAY, 0, STATIC
        FUNCALL GenericApp_HandleKeys, HalLedSet
        LOCFRAME ISTACK, 0, STACK
        LOCFRAME PSTACK, 0, STACK
        LOCFRAME XSTACK, 32, STACK
        LOCFRAME IOVERLAY, 0, STATIC
        LOCFRAME DOVERLAY, 0, STATIC
        ARGFRAME ISTACK, 0, STACK
        ARGFRAME PSTACK, 0, STACK
        ARGFRAME XSTACK, 32, STACK
        ARGFRAME IOVERLAY, 0, STATIC
        ARGFRAME DOVERLAY, 0, STATIC
        FUNCALL GenericApp_HandleKeys, NLME_GetShortAddr
        LOCFRAME ISTACK, 0, STACK
        LOCFRAME PSTACK, 0, STACK
        LOCFRAME XSTACK, 32, STACK
        LOCFRAME IOVERLAY, 0, STATIC
        LOCFRAME DOVERLAY, 0, STATIC
        ARGFRAME ISTACK, 0, STACK
        ARGFRAME PSTACK, 0, STACK
        ARGFRAME XSTACK, 32, STACK
        ARGFRAME IOVERLAY, 0, STATIC
        ARGFRAME DOVERLAY, 0, STATIC
        FUNCALL GenericApp_HandleKeys, ZDP_EndDeviceBindReq
        LOCFRAME ISTACK, 0, STACK
        LOCFRAME PSTACK, 0, STACK
        LOCFRAME XSTACK, 41, STACK
        LOCFRAME IOVERLAY, 0, STATIC
        LOCFRAME DOVERLAY, 0, STATIC
        ARGFRAME ISTACK, 0, STACK
        ARGFRAME PSTACK, 0, STACK
        ARGFRAME XSTACK, 41, STACK
        ARGFRAME IOVERLAY, 0, STATIC
        ARGFRAME DOVERLAY, 0, STATIC
        FUNCALL GenericApp_HandleKeys, HalLedSet
        LOCFRAME ISTACK, 0, STACK
        LOCFRAME PSTACK, 0, STACK
        LOCFRAME XSTACK, 32, STACK
        LOCFRAME IOVERLAY, 0, STATIC
        LOCFRAME DOVERLAY, 0, STATIC
        ARGFRAME ISTACK, 0, STACK
        ARGFRAME PSTACK, 0, STACK
        ARGFRAME XSTACK, 32, STACK
        ARGFRAME IOVERLAY, 0, STATIC
        ARGFRAME DOVERLAY, 0, STATIC
        FUNCALL GenericApp_HandleKeys, ZDP_MatchDescReq
        LOCFRAME ISTACK, 0, STACK
        LOCFRAME PSTACK, 0, STACK
        LOCFRAME XSTACK, 40, STACK
        LOCFRAME IOVERLAY, 0, STATIC
        LOCFRAME DOVERLAY, 0, STATIC
        ARGFRAME ISTACK, 0, STACK
        ARGFRAME PSTACK, 0, STACK
        ARGFRAME XSTACK, 40, STACK
        ARGFRAME IOVERLAY, 0, STATIC
        ARGFRAME DOVERLAY, 0, STATIC
        MOV     A,#-0xb
        LCALL   ?BANKED_ENTER_XDATA
        CFI DPH0 load(1, XDATA, add(CFA_XSP16, literal(-1)))
        CFI DPL0 load(1, XDATA, add(CFA_XSP16, literal(-2)))
        CFI ?BRET_EXT load(1, XDATA, add(CFA_XSP16, literal(-3)))
        CFI ?RET_HIGH load(1, XDATA, add(CFA_XSP16, literal(-4)))
        CFI ?RET_LOW load(1, XDATA, add(CFA_XSP16, literal(-5)))
        CFI R7 load(1, XDATA, add(CFA_XSP16, literal(-6)))
        CFI V2 load(1, XDATA, add(CFA_XSP16, literal(-7)))
        CFI V1 load(1, XDATA, add(CFA_XSP16, literal(-8)))
        CFI V0 load(1, XDATA, add(CFA_XSP16, literal(-9)))
        CFI VB load(1, XDATA, add(CFA_XSP16, literal(-10)))
        CFI R6 load(1, XDATA, add(CFA_XSP16, literal(-11)))
        CFI CFA_SP SP+0
        CFI CFA_XSP16 add(XSP16, 11)
        ; Saved register size: 11
        ; Auto size: 21
        MOV     A,#-0x15
        LCALL   ?ALLOC_XSTACK8
        CFI CFA_XSP16 add(XSP16, 32)
        MOV     A,R1
        MOV     R6,A
        MOV     A,R2
        MOV     R7,A
//  450   zAddrType_t dstAddr;
//  451 
//  452   // Shift is used to make each button/switch dual purpose.
//  453   if ( shift )
        MOV     A,R6
        JNZ     $+5
        LJMP    ??GenericApp_HandleKeys_0 & 0xFFFF
//  454   {
//  455     if ( keys & HAL_KEY_SW_6 )//SW2°´ĹĄ//ąă˛Ą°´ÓĐĐ§
        MOV     A,R7
        MOV     C,0xE0 /* A   */.5
        JNC     ??GenericApp_HandleKeys_1
//  456     {
//  457       // ÁÁµĆ D6 Ł¬ĚáĘľąă˛Ą·˘ËÍ
//  458       HalLedBlink(HAL_LED_2,1,HAL_LED_DEFAULT_DUTY_CYCLE, HAL_LED_DEFAULT_FLASH_TIME);
        ; Setup parameters for call to function HalLedBlink
        MOV     R4,#-0x18
        MOV     R5,#0x3
        MOV     R3,#0x5
        MOV     R2,#0x1
        MOV     R1,#0x2
        LCALL   ??HalLedBlink?relay
//  459       // ·˘ËÍ´®żÚĘýľÝ
//  460 //      HalUARTWrite(0,"hello!",6);
//  461       GenericApp_AF_Broadcast(CLUSTER_BROADCAST,14,"ĎÂÖÜżĽĘÔ\r\n");//ąă˛Ą·˘ËÍ
        MOV     A,#0x8
        LCALL   ?XSTACK_DISP0_8
        MOV     A,#0xf
        MOVX    @DPTR,A
        MOV     DPL,?XSP + 0
        MOV     DPH,?XSP + 1
        MOV     A,#-0x1
        MOVX    @DPTR,A
        INC     DPTR
        MOVX    @DPTR,A
        MOV     A,#0x9
        LCALL   ?XSTACK_DISP0_8
        MOV     A,#0x2c
        MOVX    @DPTR,A
        MOV     DPTR,#??transferId_1
        LCALL   ?Subroutine3 & 0xFFFF
??CrossCallReturnLabel_8:
        LCALL   ?PUSH_XSTACK_I_ONE
        CFI CFA_XSP16 add(XSP16, 33)
        MOV     ?V0 + 0,#??transferId_1 & 0xff
        MOV     ?V0 + 1,#(??transferId_1 >> 8) & 0xff
        MOV     R0,#?V0 + 0
        LCALL   ?PUSH_XSTACK_I_TWO
        CFI CFA_XSP16 add(XSP16, 35)
        MOV     ?V0 + 0,#`?<Constant "\\317\\302\\326\\334\\277\\274\\312\\324\\r` & 0xff
        MOV     ?V0 + 1,#(`?<Constant "\\317\\302\\326\\334\\277\\274\\312\\324\\r` >> 8) & 0xff
        MOV     R0,#?V0 + 0
        LCALL   ?PUSH_XSTACK_I_TWO
        CFI CFA_XSP16 add(XSP16, 37)
        MOV     ?V0 + 0,#0xe
        MOV     ?V0 + 1,#0x0
        MOV     R0,#?V0 + 0
        LCALL   ?PUSH_XSTACK_I_TWO
        CFI CFA_XSP16 add(XSP16, 39)
        MOV     ?V0 + 0,#0x3
        MOV     R0,#?V0 + 0
        LCALL   ?PUSH_XSTACK_I_TWO
        CFI CFA_XSP16 add(XSP16, 41)
        MOV     R1,#0x0
        MOV     R4,#GenericApp_epDesc & 0xff
        MOV     R5,#(GenericApp_epDesc >> 8) & 0xff
        MOV     A,#0x9
        LCALL   ?XSTACK_DISP0_8
        MOV     R2,DPL
        MOV     R3,DPH
        LCALL   ??AF_DataRequest?relay
        MOV     A,#0x9
        LCALL   ?DEALLOC_XSTACK8
        CFI CFA_XSP16 add(XSP16, 32)
//  462     }
//  463     if ( keys & HAL_KEY_SW_7 )//SW1°´ĹĄ//ÖŐ¶Ë°´ÓĐĐ§
??GenericApp_HandleKeys_1:
        MOV     A,R7
        MOV     C,0xE0 /* A   */.6
        JC      $+5
        LJMP    ??GenericApp_HandleKeys_2 & 0xFFFF
//  464     {
//  465       // ÁÁµĆ D5 Ł¬ĚáĘľÖŐ¶Ë·˘ËÍ
//  466       HalLedBlink(HAL_LED_1,1,HAL_LED_DEFAULT_DUTY_CYCLE, HAL_LED_DEFAULT_FLASH_TIME);
        ; Setup parameters for call to function HalLedBlink
        MOV     R4,#-0x18
        MOV     R5,#0x3
        MOV     R3,#0x5
        MOV     R2,#0x1
        MOV     R1,#0x1
        LCALL   ??HalLedBlink?relay
//  467       // ·˘ËÍ´®żÚĘýľÝ
//  468 //      HalUARTWrite(0,"hello!",6);
//  469       GenericApp_AF_P2P(0x0000,CLUSTER_P2P,14,"Hi,yuadh\r\n");//P2P
        MOV     A,#0x8
        LCALL   ?XSTACK_DISP0_8
        MOV     A,#0x2
        MOVX    @DPTR,A
        MOV     DPL,?XSP + 0
        MOV     DPH,?XSP + 1
        CLR     A
        MOVX    @DPTR,A
        INC     DPTR
        MOVX    @DPTR,A
        MOV     A,#0x9
        LCALL   ?XSTACK_DISP0_8
        MOV     A,#0x2c
        MOVX    @DPTR,A
        MOV     DPTR,#??transferId
        LCALL   ?Subroutine3 & 0xFFFF
??CrossCallReturnLabel_9:
        LCALL   ?PUSH_XSTACK_I_ONE
        CFI CFA_XSP16 add(XSP16, 33)
        MOV     ?V0 + 0,#??transferId & 0xff
        MOV     ?V0 + 1,#(??transferId >> 8) & 0xff
        MOV     R0,#?V0 + 0
        LCALL   ?PUSH_XSTACK_I_TWO
        CFI CFA_XSP16 add(XSP16, 35)
        MOV     ?V0 + 0,#`?<Constant "Hi,yuadh\\r\\n">` & 0xff
        MOV     ?V0 + 1,#(`?<Constant "Hi,yuadh\\r\\n">` >> 8) & 0xff
        MOV     R0,#?V0 + 0
        LCALL   ?PUSH_XSTACK_I_TWO
        CFI CFA_XSP16 add(XSP16, 37)
        MOV     ?V0 + 0,#0xe
        MOV     ?V0 + 1,#0x0
        MOV     R0,#?V0 + 0
        LCALL   ?PUSH_XSTACK_I_TWO
        CFI CFA_XSP16 add(XSP16, 39)
        MOV     ?V0 + 0,#0x2
        MOV     R0,#?V0 + 0
        LCALL   ?PUSH_XSTACK_I_TWO
        CFI CFA_XSP16 add(XSP16, 41)
        MOV     R1,#0x20
        MOV     R4,#GenericApp_epDesc & 0xff
        MOV     R5,#(GenericApp_epDesc >> 8) & 0xff
        MOV     A,#0x9
        LCALL   ?XSTACK_DISP0_8
        MOV     R2,DPL
        MOV     R3,DPH
        LCALL   ??AF_DataRequest?relay
        MOV     A,#0x9
        LCALL   ?DEALLOC_XSTACK8
        CFI CFA_XSP16 add(XSP16, 32)
//  470     }
//  471     if ( keys & HAL_KEY_SW_3 )
//  472     {
//  473     }
//  474     if ( keys & HAL_KEY_SW_4 )
//  475     {
//  476     }
//  477   }
        LJMP    ??GenericApp_HandleKeys_2 & 0xFFFF
//  478   else
//  479   {
//  480     if ( keys & HAL_KEY_SW_1 )
//  481     {
//  482       // Since SW1 isn't used for anything else in this application...
//  483 #if defined( SWITCH1_BIND )
//  484       // we can use SW1 to simulate SW2 for devices that only have one switch,
//  485       keys |= HAL_KEY_SW_2;
//  486 #elif defined( SWITCH1_MATCH )
//  487       // or use SW1 to simulate SW4 for devices that only have one switch
//  488       keys |= HAL_KEY_SW_4;
//  489 #endif
//  490     }
//  491 
//  492     if ( keys & HAL_KEY_SW_2 )
??GenericApp_HandleKeys_0:
        MOV     A,R7
        MOV     C,0xE0 /* A   */.1
        JNC     ??GenericApp_HandleKeys_3
//  493     {
//  494       HalLedSet ( HAL_LED_4, HAL_LED_MODE_OFF );
        ; Setup parameters for call to function HalLedSet
        MOV     R2,#0x0
        MOV     R1,#0x8
        LCALL   ??HalLedSet?relay
//  495 
//  496       // Initiate an End Device Bind Request for the mandatory endpoint
//  497       dstAddr.addrMode = Addr16Bit;
        MOV     A,#0x14
        LCALL   ?XSTACK_DISP0_8
        MOV     A,#0x2
        MOVX    @DPTR,A
//  498       dstAddr.addr.shortAddr = 0x0000; // Coordinator
        MOV     A,#0xc
        LCALL   ?XSTACK_DISP0_8
        CLR     A
        MOVX    @DPTR,A
        INC     DPTR
        MOVX    @DPTR,A
//  499       ZDP_EndDeviceBindReq( &dstAddr, NLME_GetShortAddr(),
//  500                             GenericApp_epDesc.endPoint,
//  501                             GENERICAPP_PROFID,
//  502                             GENERICAPP_MAX_CLUSTERS, (cId_t *)GenericApp_ClusterList,
//  503                             GENERICAPP_MAX_CLUSTERS, (cId_t *)GenericApp_ClusterList,
//  504                             FALSE );
        ; Setup parameters for call to function NLME_GetShortAddr
        LCALL   ??NLME_GetShortAddr?relay
        MOV     ?V0 + 0,R2
        MOV     ?V0 + 1,R3
        MOV     R4,?V0 + 0
        MOV     R5,?V0 + 1
        MOV     ?V0 + 0,#GenericApp_ClusterList & 0xff
        MOV     ?V0 + 1,#(GenericApp_ClusterList >> 8) & 0xff
        ; Setup parameters for call to function ZDP_EndDeviceBindReq
        MOV     ?V0 + 2,#0x0
        MOV     R0,#?V0 + 2
        LCALL   ?PUSH_XSTACK_I_ONE
        CFI CFA_XSP16 add(XSP16, 33)
        MOV     R0,#?V0 + 0
        LCALL   ?PUSH_XSTACK_I_TWO
        CFI CFA_XSP16 add(XSP16, 35)
        MOV     ?V0 + 2,#0x4
        MOV     R0,#?V0 + 2
        LCALL   ?PUSH_XSTACK_I_ONE
        CFI CFA_XSP16 add(XSP16, 36)
        MOV     R0,#?V0 + 0
        LCALL   ?PUSH_XSTACK_I_TWO
        CFI CFA_XSP16 add(XSP16, 38)
        MOV     ?V0 + 0,#0x4
        MOV     R0,#?V0 + 0
        LCALL   ?PUSH_XSTACK_I_ONE
        CFI CFA_XSP16 add(XSP16, 39)
        MOV     ?V0 + 1,#0xf
        MOV     R0,#?V0 + 0
        LCALL   ?PUSH_XSTACK_I_TWO
        CFI CFA_XSP16 add(XSP16, 41)
        MOV     DPTR,#GenericApp_epDesc
        MOVX    A,@DPTR
        MOV     R1,A
        MOV     A,#0x15
        LCALL   ?XSTACK_DISP0_8
        MOV     R2,DPL
        MOV     R3,DPH
        LCALL   ??ZDP_EndDeviceBindReq?relay
        MOV     A,#0x9
        LCALL   ?DEALLOC_XSTACK8
        CFI CFA_XSP16 add(XSP16, 32)
//  505     }
//  506 
//  507     if ( keys & HAL_KEY_SW_3 )
//  508     {
//  509     }
//  510 
//  511     if ( keys & HAL_KEY_SW_4 )
??GenericApp_HandleKeys_3:
        MOV     A,R7
        MOV     C,0xE0 /* A   */.3
        JNC     ??GenericApp_HandleKeys_2
//  512     {
//  513       HalLedSet ( HAL_LED_4, HAL_LED_MODE_OFF );
        ; Setup parameters for call to function HalLedSet
        MOV     R2,#0x0
        MOV     R1,#0x8
        LCALL   ??HalLedSet?relay
//  514       // Initiate a Match Description Request (Service Discovery)
//  515       dstAddr.addrMode = AddrBroadcast;
        MOV     A,#0x14
        LCALL   ?XSTACK_DISP0_8
        MOV     A,#0xf
        MOVX    @DPTR,A
//  516       dstAddr.addr.shortAddr = NWK_BROADCAST_SHORTADDR;
        MOV     A,#0xc
        LCALL   ?XSTACK_DISP0_8
        MOV     A,#-0x1
        MOVX    @DPTR,A
        INC     DPTR
        MOVX    @DPTR,A
//  517       ZDP_MatchDescReq( &dstAddr, NWK_BROADCAST_SHORTADDR,
//  518                         GENERICAPP_PROFID,
//  519                         GENERICAPP_MAX_CLUSTERS, (cId_t *)GenericApp_ClusterList,
//  520                         GENERICAPP_MAX_CLUSTERS, (cId_t *)GenericApp_ClusterList,
//  521                         FALSE );
        MOV     ?V0 + 0,#GenericApp_ClusterList & 0xff
        MOV     ?V0 + 1,#(GenericApp_ClusterList >> 8) & 0xff
        ; Setup parameters for call to function ZDP_MatchDescReq
        MOV     ?V0 + 2,#0x0
        MOV     R0,#?V0 + 2
        LCALL   ?PUSH_XSTACK_I_ONE
        CFI CFA_XSP16 add(XSP16, 33)
        MOV     R0,#?V0 + 0
        LCALL   ?PUSH_XSTACK_I_TWO
        CFI CFA_XSP16 add(XSP16, 35)
        MOV     ?V0 + 2,#0x4
        MOV     R0,#?V0 + 2
        LCALL   ?PUSH_XSTACK_I_ONE
        CFI CFA_XSP16 add(XSP16, 36)
        MOV     R0,#?V0 + 0
        LCALL   ?PUSH_XSTACK_I_TWO
        CFI CFA_XSP16 add(XSP16, 38)
        MOV     ?V0 + 0,#0x4
        MOV     ?V0 + 1,#0xf
        MOV     R0,#?V0 + 0
        LCALL   ?PUSH_XSTACK_I_TWO
        CFI CFA_XSP16 add(XSP16, 40)
        MOV     R1,#0x4
        MOV     R4,#-0x1
        MOV     R5,#-0x1
        MOV     A,#0x14
        LCALL   ?XSTACK_DISP0_8
        MOV     R2,DPL
        MOV     R3,DPH
        LCALL   ??ZDP_MatchDescReq?relay
        MOV     A,#0x8
        LCALL   ?DEALLOC_XSTACK8
        CFI CFA_XSP16 add(XSP16, 32)
//  522     }
//  523   }
//  524 }
??GenericApp_HandleKeys_2:
        MOV     A,#0x15
        LCALL   ?DEALLOC_XSTACK8
        CFI CFA_XSP16 add(XSP16, 11)
        MOV     R7,#0x3
        LJMP    ?BANKED_LEAVE_XDATA
        CFI EndBlock cfiBlock13

        RSEG BANKED_CODE:CODE:NOROOT(0)
?Subroutine3:
        CFI Block cfiCond14 Using cfiCommon0
        CFI NoFunction
        CFI Conditional ??CrossCallReturnLabel_8
        CFI R6 load(1, XDATA, add(CFA_XSP16, literal(-11)))
        CFI VB load(1, XDATA, add(CFA_XSP16, literal(-10)))
        CFI V0 load(1, XDATA, add(CFA_XSP16, literal(-9)))
        CFI V1 load(1, XDATA, add(CFA_XSP16, literal(-8)))
        CFI V2 load(1, XDATA, add(CFA_XSP16, literal(-7)))
        CFI R7 load(1, XDATA, add(CFA_XSP16, literal(-6)))
        CFI ?RET_LOW load(1, XDATA, add(CFA_XSP16, literal(-5)))
        CFI ?RET_HIGH load(1, XDATA, add(CFA_XSP16, literal(-4)))
        CFI ?BRET_EXT load(1, XDATA, add(CFA_XSP16, literal(-3)))
        CFI DPL0 load(1, XDATA, add(CFA_XSP16, literal(-2)))
        CFI DPH0 load(1, XDATA, add(CFA_XSP16, literal(-1)))
        CFI CFA_SP SP+0
        CFI CFA_XSP16 add(XSP16, 32)
        CFI Block cfiCond15 Using cfiCommon0
        CFI (cfiCond15) NoFunction
        CFI (cfiCond15) Conditional ??CrossCallReturnLabel_9
        CFI (cfiCond15) R6 load(1, XDATA, add(CFA_XSP16, literal(-11)))
        CFI (cfiCond15) VB load(1, XDATA, add(CFA_XSP16, literal(-10)))
        CFI (cfiCond15) V0 load(1, XDATA, add(CFA_XSP16, literal(-9)))
        CFI (cfiCond15) V1 load(1, XDATA, add(CFA_XSP16, literal(-8)))
        CFI (cfiCond15) V2 load(1, XDATA, add(CFA_XSP16, literal(-7)))
        CFI (cfiCond15) R7 load(1, XDATA, add(CFA_XSP16, literal(-6)))
        CFI (cfiCond15) ?RET_LOW load(1, XDATA, add(CFA_XSP16, literal(-5)))
        CFI (cfiCond15) ?RET_HIGH load(1, XDATA, add(CFA_XSP16, literal(-4)))
        CFI (cfiCond15) ?BRET_EXT load(1, XDATA, add(CFA_XSP16, literal(-3)))
        CFI (cfiCond15) DPL0 load(1, XDATA, add(CFA_XSP16, literal(-2)))
        CFI (cfiCond15) DPH0 load(1, XDATA, add(CFA_XSP16, literal(-1)))
        CFI (cfiCond15) CFA_SP SP+0
        CFI (cfiCond15) CFA_XSP16 add(XSP16, 32)
        CFI Block cfiPicker16 Using cfiCommon1
        CFI (cfiPicker16) NoFunction
        CFI (cfiPicker16) Picker
        MOVX    A,@DPTR
        INC     A
        MOVX    @DPTR,A
        ; Setup parameters for call to function AF_DataRequest
        ; Setup parameters for call to function AF_DataRequest
        MOV     ?V0 + 0,#0x1e
        MOV     R0,#?V0 + 0
        RET
        CFI EndBlock cfiCond14
        CFI EndBlock cfiCond15
        CFI EndBlock cfiPicker16
//  525 
//  526 /*********************************************************************
//  527  * LOCAL FUNCTIONS
//  528  */
//  529 
//  530 /*********************************************************************
//  531  * @fn      GenericApp_MessageMSGCB
//  532  *
//  533  * @brief   Data message processor callback.  This function processes
//  534  *          any incoming data - probably from other devices.  So, based
//  535  *          on cluster ID, perform the intended action.
//  536  *
//  537  * @param   none
//  538  *
//  539  * @return  none
//  540  */
//  541 //static void GenericApp_MessageMSGCB( afIncomingMSGPacket_t *pkt )
//  542 //{
//  543 //  switch ( pkt->clusterId )
//  544 //  {
//  545 //    case GENERICAPP_CLUSTERID:
//  546 //      // "the" message
//  547 //#if defined( LCD_SUPPORTED )
//  548 //      HalLcdWriteScreen( (char*)pkt->cmd.Data, "rcvd" );
//  549 //#elif defined( WIN32 )
//  550 //      WPRINTSTR( pkt->cmd.Data );
//  551 //#endif
//  552 //      break;
//  553 //  }
//  554 //}
//  555 
//  556 /*********************************************************************
//  557  * @fn      GenericApp_SendTheMessage
//  558  *
//  559  * @brief   Send "the" message.
//  560  *
//  561  * @param   none
//  562  *
//  563  * @return  none
//  564  */
//  565 static void GenericApp_SendTheMessage( void )
//  566 {
//  567   char theMessageData[] = "Hello World";
//  568 
//  569   if ( AF_DataRequest( &GenericApp_DstAddr, &GenericApp_epDesc,
//  570                        GENERICAPP_CLUSTERID,
//  571                        (byte)osal_strlen( theMessageData ) + 1,
//  572                        (byte *)&theMessageData,
//  573                        &GenericApp_TransID,
//  574                        AF_DISCV_ROUTE, AF_DEFAULT_RADIUS ) == afStatus_SUCCESS )
//  575   {
//  576     // Successfully requested to be sent.
//  577   }
//  578   else
//  579   {
//  580     // Error occurred in request to send.
//  581   }
//  582 }
//  583 
//  584 #if defined( IAR_ARMCM3_LM )
//  585 /*********************************************************************
//  586  * @fn      GenericApp_ProcessRtosMessage
//  587  *
//  588  * @brief   Receive message from RTOS queue, send response back.
//  589  *
//  590  * @param   none
//  591  *
//  592  * @return  none
//  593  */
//  594 static void GenericApp_ProcessRtosMessage( void )
//  595 {
//  596   osalQueue_t inMsg;
//  597 
//  598   if ( osal_queue_receive( OsalQueue, &inMsg, 0 ) == pdPASS )
//  599   {
//  600     uint8 cmndId = inMsg.cmnd;
//  601     uint32 counter = osal_build_uint32( inMsg.cbuf, 4 );
//  602 
//  603     switch ( cmndId )
//  604     {
//  605       case CMD_INCR:
//  606         counter += 1;  /* Increment the incoming counter */
//  607                        /* Intentionally fall through next case */
//  608 
//  609       case CMD_ECHO:
//  610       {
//  611         userQueue_t outMsg;
//  612 
//  613         outMsg.resp = RSP_CODE | cmndId;  /* Response ID */
//  614         osal_buffer_uint32( outMsg.rbuf, counter );    /* Increment counter */
//  615         osal_queue_send( UserQueue1, &outMsg, 0 );  /* Send back to UserTask */
//  616         break;
//  617       }
//  618 
//  619       default:
//  620         break;  /* Ignore unknown command */
//  621     }
//  622   }
//  623 }
//  624 #endif
//  625 
//  626 /**
//  627   desc:p2pÍ¨ĐĹ·˝Ę˝
//  628   uint16 destNwkAddr,//Äż±ęÉč±¸µÄÍřÂçµŘÖ·
//  629   uint16 cid,//Cluster IDŁ¬şóĐřĎęĎ¸˝˛˝â
//  630   uint8 len,//ĘýľÝł¤¶ČşÍĘýľÝÄÚČÝ
//  631   uint8 *data
//  632 */
//  633 static void GenericApp_AF_P2P(uint16 destNwkAddr,uint16 cid,uint8 len,uint8 *data){
//  634   afAddrType_t dstAddr; //Ń°Ö·ĐĹĎ˘ĹäÖĂ

        RSEG XDATA_Z:XDATA:NOROOT(0)
        DATA8
//  635   static uint8 transferId = 0;//´«Ęä IDŁ¬ĘÇĘýľÝ°üµÄ±ęĘ¶·űŁ¬ÔÝĘ±ÎŢĐëŔí
??transferId:
        DS 1
        REQUIRE __INIT_XDATA_Z
//  636   /* Destination */
//  637   dstAddr.addrMode = afAddr16Bit;//ÉčÖĂÄż±ęµŘÖ·ÄŁĘ˝ÎŞ 16 Î»ÍřÂçµŘÖ·Ł¬±íĘľĘąÓĂ P2P µÄÍ¨ĐĹ·˝Ę˝
//  638   dstAddr.addr.shortAddr = destNwkAddr;  //Äż±ęÉč±¸ÍřÂçµŘÖ·
//  639   dstAddr.endPoint = GENERICAPP_ENDPOINT;  //Äż±ęÉč±¸µÄÓ¦ÓĂ¶ËµăşĹ
//  640   transferId++;
//  641   AF_DataRequest( &dstAddr,
//  642                   &GenericApp_epDesc,//Ö®Ç°´´˝¨µÄĽňµĄĂčĘö·ű
//  643                   cid,
//  644                   len,
//  645                   data,
//  646                   &transferId,
//  647                   AF_DISCV_ROUTE,//˝řĐĐÂ·ÓÉÉ¨Ăč˛Ů×÷ÓĂÓÚ˝¨Á˘·˘ËÍĘýľÝ±¨ÎÄµÄÍ¨ĐĹÂ·ľ¶Ł¬ÔÝĘ±ÎŢĐëŔí˝â
//  648                   AF_DEFAULT_RADIUS);//Ö¸Â·ÓÉĚř×ŞĽ¶ĘýŁ¬ÔÝĘ±ÎŢĐëŔí˝â
//  649 }
//  650 /**
//  651   desc:ąă˛ĄÍ¨ĐĹ
//  652 
//  653 */
//  654 static void GenericApp_AF_Broadcast(uint16 cid,uint8 len, uint8 *data){
//  655   afAddrType_t dstAddr;

        RSEG XDATA_Z:XDATA:NOROOT(0)
        DATA8
//  656   static uint8 transferId = 0;
??transferId_1:
        DS 1
        REQUIRE __INIT_XDATA_Z
//  657   /* Destination */
//  658   dstAddr.addrMode = afAddrBroadcast;   // ĘąÓĂąă˛ĄÄŁĘ˝
//  659   dstAddr.addr.shortAddr = 0xFFFF; // ąă˛ĄµŘÖ·
//  660   dstAddr.endPoint = GENERICAPP_ENDPOINT; // Äż±ęÉč±¸µÄ¶ËµăşĹ
//  661   /* Transfer id */
//  662   transferId++;
//  663   /* Send */
//  664   AF_DataRequest(&dstAddr,
//  665                  &GenericApp_epDesc,
//  666                  cid,
//  667                  len, data,
//  668                  &transferId,
//  669                  AF_TX_OPTIONS_NONE,
//  670                  AF_DEFAULT_RADIUS );
//  671 }
//  672 
//  673 /**
//  674   descŁş×é˛ĄÍ¨ĐĹ
//  675   uint16 groupId,//×é ID
//  676   uint16 cid,//ClusterID
//  677   uint8 len, uint8 *data//ĘýľÝµÄł¤¶ČşÍÄÚČÝ
//  678 */
//  679 
//  680 static void zclSampleSw_AF_Groupcast(uint16 groupId,uint16 cid,uint8 len, uint8 *data)
//  681 {
//  682   afAddrType_t dstAddr;
//  683   static uint8 transferId = 0;
//  684   /* Destination */
//  685   dstAddr.addrMode = afAddrGroup;// ĘąÓĂ×é˛ĄÍ¨ĐĹÄŁĘ˝
//  686   dstAddr.addr.shortAddr = groupId;// ×é ID
//  687   dstAddr.endPoint = GENERICAPP_ENDPOINT;  // ×éÖĐµÄÉč±¸µÄ¶ËµăşĹ
//  688   /* Transfer id */
//  689   transferId++;
//  690   /* Send */
//  691   AF_DataRequest(&dstAddr,
//  692                  &GenericApp_epDesc,
//  693                  cid,
//  694                  len,
//  695                  data,
//  696                  &transferId,
//  697                  AF_TX_OPTIONS_NONE,
//  698                  AF_DEFAULT_RADIUS );
//  699 }
//  700 /**
//  701   desc:˝ÓĘŐµ˝AFĘýľÝµÄ´¦ŔíşŻĘý
//  702 */
//  703 static void GenericApp_MessageMSGCB(afIncomingMSGPacket_t *MSGpkt)
//  704 {

        RSEG XDATA_Z:XDATA:NOROOT(0)
        DATA16
//  705   static uint16 p2pCnt = 0;
??p2pCnt:
        DS 2
        REQUIRE __INIT_XDATA_Z

        RSEG XDATA_Z:XDATA:NOROOT(0)
        DATA16
//  706   static uint16 bcCnt = 0;
??bcCnt:
        DS 2
        REQUIRE __INIT_XDATA_Z

        RSEG XDATA_Z:XDATA:NOROOT(0)
        DATA16
//  707   static uint16 gcCnt = 0;
??gcCnt:
        DS 2
        REQUIRE __INIT_XDATA_Z

        RSEG BANK_RELAYS:CODE:REORDER:NOROOT(0)
??GenericApp_Init?relay:
        LCALL   ?BDISPATCH
        DATA
        DC24    GenericApp_Init

        RSEG BANK_RELAYS:CODE:REORDER:NOROOT(0)
??GenericApp_ProcessEvent?relay:
        LCALL   ?BDISPATCH
        DATA
        DC24    GenericApp_ProcessEvent

        RSEG BANK_RELAYS:CODE:REORDER:NOROOT(0)
??GenericApp_HandleKeys?relay:
        LCALL   ?BDISPATCH
        DATA
        DC24    GenericApp_HandleKeys

        RSEG XDATA_ROM_C:CONST:REORDER:NOROOT(0)
        DATA8
`?<Constant "\\r\\n">`:
        DB "\015\012"

        RSEG XDATA_ROM_C:CONST:REORDER:NOROOT(0)
        DATA8
`?<Constant "hello!">`:
        DB "hello!"

        RSEG XDATA_ROM_C:CONST:REORDER:NOROOT(0)
        DATA8
`?<Constant "\\317\\302\\326\\334\\277\\274\\312\\324\\r`:
        DB "\317\302\326\334\277\274\312\324\015\012"

        RSEG XDATA_ROM_C:CONST:REORDER:NOROOT(0)
        DATA8
`?<Constant "Hi,yuadh\\r\\n">`:
        DB "Hi,yuadh\015\012"

        RSEG XDATA_ROM_C:CONST:REORDER:NOROOT(0)
        DATA8
`?<Constant "Hello World">`:
        DB "Hello World"

        END
//  708 
//  709   switch( MSGpkt->clusterId )  // ĹĐ¶Ď˝ÓĘŐµ˝µÄĘýľÝ°üµÄ Cluster ID ŔŕĐÍ
//  710   {
//  711     case CLUSTER_P2P:
//  712       p2pCnt++;  // ˝ÓĘŐµ˝ P2P ĘýľÝ°üŁ¬˝řĐĐĽĆĘý
//  713                  // °Ń˝ÓĘŐµ˝µÄĘýľÝĎÔĘľÔÚĆÁÄ»ÉĎŁ¬˛˘·­×Ş LED
//  714       HalUARTWrite(0,(unsigned char *)MSGpkt->cmd.Data,p2pCnt);
//  715       HalLedSet(HAL_LED_1, HAL_LED_MODE_TOGGLE);
//  716       break;
//  717 
//  718     case CLUSTER_BROADCAST:
//  719       bcCnt++;  // ˝ÓĘŐµ˝ąă˛ĄĘýľÝ°üŁ¬˝řĐĐĽĆĘý
//  720       HalUARTWrite(0, (unsigned char *)MSGpkt->cmd.Data,bcCnt);
//  721       HalLedSet(HAL_LED_2, HAL_LED_MODE_TOGGLE);
//  722       // ˝«µĂµ˝µÄĘýľÝĎÔĘľµ˝´®żÚÖúĘÖÉĎ
//  723       break;
//  724 
//  725     case CLUSTER_GROUPCAST:
//  726       gcCnt++;  // ˝ÓĘŐµ˝×é˛ĄĘýľÝ°üŁ¬˝řĐĐĽĆĘý
//  727       HalUARTWrite(0,(unsigned char *)MSGpkt->cmd.Data,gcCnt);
//  728       HalLedSet(HAL_LED_3, HAL_LED_MODE_TOGGLE);
//  729       break;
//  730     default:
//  731       break;
//  732   }
//  733 }
//  734 
//  735 
//  736 //´®żÚ˝ÓĘŐ·ţÎńşŻĘý
//  737 //static void GenericApp_UartRxMsgs(mtOSALSerialData_t *rxpkt){
//  738 //  HalUARTWrite(0,"useing",6);
//  739 //  uint8 len,*UartRxBuffer = NULL;
//  740 //  UartRxBuffer = rxpkt->msg;
//  741 //  len = *UartRxBuffer;
//  742 //  HalUARTWrite(0,UartRxBuffer+1,len);
//  743 //  HalUARTWrite(0,"\r\n",2);
//  744 //}
//  745 /*********************************************************************
//  746  */
// 
// 1 205 bytes in segment BANKED_CODE
//    18 bytes in segment BANK_RELAYS
//    64 bytes in segment XDATA_ROM_C
//    29 bytes in segment XDATA_Z
// 
// 1 223 bytes of CODE  memory
//    64 bytes of CONST memory
//    29 bytes of XDATA memory
//
//Errors: none
//Warnings: 2
