///////////////////////////////////////////////////////////////////////////////
//                                                                            /
// IAR C/C++ Compiler V8.10.1.40194/W32 for 8051        07/Jun/2022  15:17:38 /
// Copyright 2004-2011 IAR Systems AB.                                        /
//                                                                            /
//    Core               =  plain                                             /
//    Code model         =  banked                                            /
//    Data model         =  large                                             /
//    Calling convention =  xdata reentrant                                   /
//    Constant location  =  data_rom                                          /
//    Dptr setup         =  1,16                                              /
//    Source file        =  C:\Texas Instruments\ZStack-CC2530-2.5.1a\Project /
//                          s\zstack\Samples\GenericApp\Source\init.c         /
//    Command line       =  -f "C:\Texas Instruments\ZStack-CC2530-2.5.1a\Pro /
//                          jects\zstack\Samples\GenericApp\CC2530DB\..\..\.. /
//                          \Tools\CC2530DB\f8wRouter.cfg" (-DCPU32MHZ        /
//                          -DROOT=__near_func -DMAC_CFG_APP_PENDING_QUEUE=TR /
//                          UE -DMAC_CFG_TX_DATA_MAX=5 -DMAC_CFG_TX_MAX=8     /
//                          -DMAC_CFG_RX_MAX=5 -DRTR_NWK) -f "C:\Texas        /
//                          Instruments\ZStack-CC2530-2.5.1a\Projects\zstack\ /
//                          Samples\GenericApp\CC2530DB\..\..\..\Tools\CC2530 /
//                          DB\f8wConfig.cfg" (-DZIGBEEPRO -DSECURE=0         /
//                          -DZG_SECURE_DYNAMIC=0 -DREFLECTOR                 /
//                          -DDEFAULT_CHANLIST=0x00000800                     /
//                          -DZDAPP_CONFIG_PAN_ID=0xFFFF                      /
//                          -DNWK_START_DELAY=100 -DEXTENDED_JOINING_RANDOM_M /
//                          ASK=0x007F -DBEACON_REQUEST_DELAY=100             /
//                          -DBEACON_REQ_DELAY_MASK=0x00FF                    /
//                          -DLINK_STATUS_JITTER_MASK=0x007F                  /
//                          -DROUTE_EXPIRY_TIME=30 -DAPSC_ACK_WAIT_DURATION_P /
//                          OLLED=3000 -DNWK_INDIRECT_MSG_TIMEOUT=7           /
//                          -DMAX_RREQ_ENTRIES=8 -DAPSC_MAX_FRAME_RETRIES=3   /
//                          -DNWK_MAX_DATA_RETRIES=2                          /
//                          -DMAX_POLL_FAILURE_RETRIES=2 -DMAX_BCAST=9        /
//                          -DAPS_MAX_GROUPS=16 -DMAX_RTG_ENTRIES=40          /
//                          -DNWK_MAX_BINDING_ENTRIES=4                       /
//                          -DMAX_BINDING_CLUSTER_IDS=4                       /
//                          "-DDEFAULT_KEY={0x01, 0x03, 0x05, 0x07, 0x09,     /
//                          0x0B, 0x0D, 0x0F, 0x00, 0x02, 0x04, 0x06, 0x08,   /
//                          0x0A, 0x0C, 0x0D}" -DMAC_MAX_FRAME_SIZE=116       /
//                          -DZDNWKMGR_MIN_TRANSMISSIONS=20 "-DCONST=const    /
//                          __code" -DGENERIC=__generic                       /
//                          -DRFD_RCVC_ALWAYS_ON=FALSE -DPOLL_RATE=1000       /
//                          -DQUEUED_POLL_RATE=100 -DRESPONSE_POLL_RATE=100)  /
//                          -DREJOIN_POLL_RATE=440 "C:\Texas                  /
//                          Instruments\ZStack-CC2530-2.5.1a\Projects\zstack\ /
//                          Samples\GenericApp\Source\init.c" -D ZTOOL_P1 -D  /
//                          xMT_TASK -D MT_SYS_FUNC -D MT_ZDO_FUNC -D         /
//                          xLCD_SUPPORTED=DEBUG -lC "C:\Texas                /
//                          Instruments\ZStack-CC2530-2.5.1a\Projects\zstack\ /
//                          Samples\GenericApp\CC2530DB\RouterEB\List\" -lA   /
//                          "C:\Texas Instruments\ZStack-CC2530-2.5.1a\Projec /
//                          ts\zstack\Samples\GenericApp\CC2530DB\RouterEB\Li /
//                          st\" --diag_suppress Pe001,Pa010 -o "C:\Texas     /
//                          Instruments\ZStack-CC2530-2.5.1a\Projects\zstack\ /
//                          Samples\GenericApp\CC2530DB\RouterEB\Obj\" -e     /
//                          --no_code_motion --debug --core=plain             /
//                          --dptr=16,1 --data_model=large                    /
//                          --code_model=banked --calling_convention=xdata_re /
//                          entrant --place_constants=data_rom                /
//                          --nr_virtual_regs 16 -I "C:\Texas                 /
//                          Instruments\ZStack-CC2530-2.5.1a\Projects\zstack\ /
//                          Samples\GenericApp\CC2530DB\" -I "C:\Texas        /
//                          Instruments\ZStack-CC2530-2.5.1a\Projects\zstack\ /
//                          Samples\GenericApp\CC2530DB\..\Source\" -I        /
//                          "C:\Texas Instruments\ZStack-CC2530-2.5.1a\Projec /
//                          ts\zstack\Samples\GenericApp\CC2530DB\..\..\..\ZM /
//                          ain\TI2530DB\" -I "C:\Texas                       /
//                          Instruments\ZStack-CC2530-2.5.1a\Projects\zstack\ /
//                          Samples\GenericApp\CC2530DB\..\..\..\..\..\Compon /
//                          ents\hal\include\" -I "C:\Texas                   /
//                          Instruments\ZStack-CC2530-2.5.1a\Projects\zstack\ /
//                          Samples\GenericApp\CC2530DB\..\..\..\..\..\Compon /
//                          ents\hal\target\CC2530EB\" -I "C:\Texas           /
//                          Instruments\ZStack-CC2530-2.5.1a\Projects\zstack\ /
//                          Samples\GenericApp\CC2530DB\..\..\..\..\..\Compon /
//                          ents\mac\include\" -I "C:\Texas                   /
//                          Instruments\ZStack-CC2530-2.5.1a\Projects\zstack\ /
//                          Samples\GenericApp\CC2530DB\..\..\..\..\..\Compon /
//                          ents\mac\high_level\" -I "C:\Texas                /
//                          Instruments\ZStack-CC2530-2.5.1a\Projects\zstack\ /
//                          Samples\GenericApp\CC2530DB\..\..\..\..\..\Compon /
//                          ents\mac\low_level\srf04\" -I "C:\Texas           /
//                          Instruments\ZStack-CC2530-2.5.1a\Projects\zstack\ /
//                          Samples\GenericApp\CC2530DB\..\..\..\..\..\Compon /
//                          ents\mac\low_level\srf04\single_chip\" -I         /
//                          "C:\Texas Instruments\ZStack-CC2530-2.5.1a\Projec /
//                          ts\zstack\Samples\GenericApp\CC2530DB\..\..\..\.. /
//                          \..\Components\mt\" -I "C:\Texas                  /
//                          Instruments\ZStack-CC2530-2.5.1a\Projects\zstack\ /
//                          Samples\GenericApp\CC2530DB\..\..\..\..\..\Compon /
//                          ents\osal\include\" -I "C:\Texas                  /
//                          Instruments\ZStack-CC2530-2.5.1a\Projects\zstack\ /
//                          Samples\GenericApp\CC2530DB\..\..\..\..\..\Compon /
//                          ents\services\saddr\" -I "C:\Texas                /
//                          Instruments\ZStack-CC2530-2.5.1a\Projects\zstack\ /
//                          Samples\GenericApp\CC2530DB\..\..\..\..\..\Compon /
//                          ents\services\sdata\" -I "C:\Texas                /
//                          Instruments\ZStack-CC2530-2.5.1a\Projects\zstack\ /
//                          Samples\GenericApp\CC2530DB\..\..\..\..\..\Compon /
//                          ents\stack\af\" -I "C:\Texas                      /
//                          Instruments\ZStack-CC2530-2.5.1a\Projects\zstack\ /
//                          Samples\GenericApp\CC2530DB\..\..\..\..\..\Compon /
//                          ents\stack\nwk\" -I "C:\Texas                     /
//                          Instruments\ZStack-CC2530-2.5.1a\Projects\zstack\ /
//                          Samples\GenericApp\CC2530DB\..\..\..\..\..\Compon /
//                          ents\stack\sapi\" -I "C:\Texas                    /
//                          Instruments\ZStack-CC2530-2.5.1a\Projects\zstack\ /
//                          Samples\GenericApp\CC2530DB\..\..\..\..\..\Compon /
//                          ents\stack\sec\" -I "C:\Texas                     /
//                          Instruments\ZStack-CC2530-2.5.1a\Projects\zstack\ /
//                          Samples\GenericApp\CC2530DB\..\..\..\..\..\Compon /
//                          ents\stack\sys\" -I "C:\Texas                     /
//                          Instruments\ZStack-CC2530-2.5.1a\Projects\zstack\ /
//                          Samples\GenericApp\CC2530DB\..\..\..\..\..\Compon /
//                          ents\stack\zdo\" -I "C:\Texas                     /
//                          Instruments\ZStack-CC2530-2.5.1a\Projects\zstack\ /
//                          Samples\GenericApp\CC2530DB\..\..\..\..\..\Compon /
//                          ents\zmac\" -I "C:\Texas                          /
//                          Instruments\ZStack-CC2530-2.5.1a\Projects\zstack\ /
//                          Samples\GenericApp\CC2530DB\..\..\..\..\..\Compon /
//                          ents\zmac\f8w\" -Ohz                              /
//    List file          =  C:\Texas Instruments\ZStack-CC2530-2.5.1a\Project /
//                          s\zstack\Samples\GenericApp\CC2530DB\RouterEB\Lis /
//                          t\init.s51                                        /
//                                                                            /
//                                                                            /
///////////////////////////////////////////////////////////////////////////////

        NAME init

        RTMODEL "__SystemLibrary", "CLib"
        RTMODEL "__calling_convention", "xdata_reentrant"
        RTMODEL "__code_model", "banked"
        RTMODEL "__core", "plain"
        RTMODEL "__data_model", "large"
        RTMODEL "__dptr_size", "16"
        RTMODEL "__extended_stack", "disabled"
        RTMODEL "__location_for_constants", "data"
        RTMODEL "__number_of_dptrs", "1"
        RTMODEL "__rt_version", "1"

        RSEG DOVERLAY:DATA:NOROOT(0)
        RSEG IOVERLAY:IDATA:NOROOT(0)
        RSEG ISTACK:IDATA:NOROOT(0)
        RSEG PSTACK:XDATA:NOROOT(0)
        RSEG XSTACK:XDATA:NOROOT(0)

        EXTERN ?BDISPATCH
        EXTERN ?BRET

        PUBLIC ??Delay?relay
        FUNCTION ??Delay?relay,0203H
        PUBLIC ??Feed_DOG?relay
        FUNCTION ??Feed_DOG?relay,0203H
        PUBLIC ??Init_16MClock?relay
        FUNCTION ??Init_16MClock?relay,0203H
        PUBLIC ??Init_32MClock?relay
        FUNCTION ??Init_32MClock?relay,0203H
        PUBLIC ??Init_Timer1?relay
        FUNCTION ??Init_Timer1?relay,0203H
        PUBLIC ??Init_Uart0?relay
        FUNCTION ??Init_Uart0?relay,0203H
        PUBLIC ??Init_WDT?relay
        FUNCTION ??Init_WDT?relay,0203H
        PUBLIC ??init1s_WDT?relay
        FUNCTION ??init1s_WDT?relay,0203H
        PUBLIC ??init_ADC?relay
        FUNCTION ??init_ADC?relay,0203H
        PUBLIC ??init_btn?relay
        FUNCTION ??init_btn?relay,0203H
        PUBLIC ??init_port?relay
        FUNCTION ??init_port?relay,0203H
        PUBLIC ??led_check?relay
        FUNCTION ??led_check?relay,0203H
        PUBWEAK APCFG
        PUBWEAK CLKCONCMD
        PUBWEAK CLKCONSTA
        PUBLIC Delay
        FUNCTION Delay,0203H
        ARGFRAME XSTACK, 0, STACK
        ARGFRAME IOVERLAY, 0, STATIC
        ARGFRAME DOVERLAY, 0, STATIC
        PUBLIC Feed_DOG
        FUNCTION Feed_DOG,0201H
        ARGFRAME XSTACK, 0, STACK
        PUBWEAK IEN2
        PUBLIC Init_16MClock
        FUNCTION Init_16MClock,0201H
        ARGFRAME XSTACK, 0, STACK
        PUBLIC Init_32MClock
        FUNCTION Init_32MClock,0201H
        ARGFRAME XSTACK, 0, STACK
        PUBLIC Init_Timer1
        FUNCTION Init_Timer1,0201H
        ARGFRAME XSTACK, 0, STACK
        PUBLIC Init_Uart0
        FUNCTION Init_Uart0,0201H
        ARGFRAME XSTACK, 0, STACK
        PUBLIC Init_WDT
        FUNCTION Init_WDT,0203H
        ARGFRAME XSTACK, 0, STACK
        PUBWEAK P0DIR
        PUBWEAK P0IEN
        PUBWEAK P0INP
        PUBWEAK P0SEL
        PUBWEAK P1DIR
        PUBWEAK P1IEN
        PUBWEAK P1INP
        PUBWEAK P1SEL
        PUBWEAK P2INP
        PUBWEAK PERCFG
        PUBWEAK PICTL
        PUBWEAK T1CC0H
        PUBWEAK T1CC0L
        PUBWEAK T1CCTL0
        PUBWEAK T1CTL
        PUBWEAK U0BAUD
        PUBWEAK U0CSR
        PUBWEAK U0GCR
        PUBWEAK U0UCR
        PUBWEAK WDCTL
        PUBWEAK _A_IEN0
        PUBWEAK _A_IEN1
        PUBWEAK _A_IRCON2
        PUBWEAK _A_P1
        PUBWEAK _A_TCON
        PUBLIC init1s_WDT
        FUNCTION init1s_WDT,0201H
        ARGFRAME XSTACK, 0, STACK
        PUBLIC init_ADC
        FUNCTION init_ADC,0201H
        ARGFRAME XSTACK, 0, STACK
        PUBLIC init_btn
        FUNCTION init_btn,0203H
        ARGFRAME XSTACK, 0, STACK
        PUBLIC init_port
        FUNCTION init_port,0201H
        ARGFRAME XSTACK, 0, STACK
        PUBLIC led_check
        FUNCTION led_check,021201H
        ARGFRAME XSTACK, 0, STACK
        LOCFRAME ISTACK, 2, STACK
        
        CFI Names cfiNames0
        CFI StackFrame CFA_SP SP IDATA
        CFI StackFrame CFA_PSP16 PSP16 XDATA
        CFI StackFrame CFA_XSP16 XSP16 XDATA
        CFI StaticOverlayFrame CFA_IOVERLAY IOVERLAY
        CFI StaticOverlayFrame CFA_DOVERLAY DOVERLAY
        CFI Resource `PSW.CY`:1, `B.BR0`:1, `B.BR1`:1, `B.BR2`:1, `B.BR3`:1
        CFI Resource `B.BR4`:1, `B.BR5`:1, `B.BR6`:1, `B.BR7`:1, `VB.BR8`:1
        CFI Resource `VB.BR9`:1, `VB.BR10`:1, `VB.BR11`:1, `VB.BR12`:1
        CFI Resource `VB.BR13`:1, `VB.BR14`:1, `VB.BR15`:1, VB:8, B:8, A:8
        CFI Resource PSW:8, DPL0:8, DPH0:8, R0:8, R1:8, R2:8, R3:8, R4:8, R5:8
        CFI Resource R6:8, R7:8, V0:8, V1:8, V2:8, V3:8, V4:8, V5:8, V6:8, V7:8
        CFI Resource V8:8, V9:8, V10:8, V11:8, V12:8, V13:8, V14:8, V15:8, SP:8
        CFI Resource PSPH:8, PSPL:8, PSP16:16, XSPH:8, XSPL:8, XSP16:16
        CFI VirtualResource ?RET:24
        CFI Resource ?BRET_EXT:8
        CFI VirtualResource ?RET_HIGH:8, ?RET_LOW:8
        CFI ResourceParts PSP16 PSPH, PSPL
        CFI ResourceParts XSP16 XSPH, XSPL
        CFI ResourceParts ?RET ?BRET_EXT, ?RET_HIGH, ?RET_LOW
        CFI EndNames cfiNames0
        
        CFI Common cfiCommon0 Using cfiNames0
        CFI CodeAlign 1
        CFI DataAlign -1
        CFI ReturnAddress ?RET CODE
        CFI CFA_DOVERLAY Used
        CFI CFA_IOVERLAY Used
        CFI CFA_SP SP+-3
        CFI CFA_PSP16 PSP16+0
        CFI CFA_XSP16 XSP16+0
        CFI `PSW.CY` SameValue
        CFI `B.BR0` SameValue
        CFI `B.BR1` SameValue
        CFI `B.BR2` SameValue
        CFI `B.BR3` SameValue
        CFI `B.BR4` SameValue
        CFI `B.BR5` SameValue
        CFI `B.BR6` SameValue
        CFI `B.BR7` SameValue
        CFI `VB.BR8` SameValue
        CFI `VB.BR9` SameValue
        CFI `VB.BR10` SameValue
        CFI `VB.BR11` SameValue
        CFI `VB.BR12` SameValue
        CFI `VB.BR13` SameValue
        CFI `VB.BR14` SameValue
        CFI `VB.BR15` SameValue
        CFI VB SameValue
        CFI B Undefined
        CFI A Undefined
        CFI PSW SameValue
        CFI DPL0 SameValue
        CFI DPH0 SameValue
        CFI R0 Undefined
        CFI R1 Undefined
        CFI R2 Undefined
        CFI R3 Undefined
        CFI R4 Undefined
        CFI R5 Undefined
        CFI R6 SameValue
        CFI R7 SameValue
        CFI V0 SameValue
        CFI V1 SameValue
        CFI V2 SameValue
        CFI V3 SameValue
        CFI V4 SameValue
        CFI V5 SameValue
        CFI V6 SameValue
        CFI V7 SameValue
        CFI V8 SameValue
        CFI V9 SameValue
        CFI V10 SameValue
        CFI V11 SameValue
        CFI V12 SameValue
        CFI V13 SameValue
        CFI V14 SameValue
        CFI V15 SameValue
        CFI PSPH Undefined
        CFI PSPL Undefined
        CFI XSPH Undefined
        CFI XSPL Undefined
        CFI ?RET Concat
        CFI ?BRET_EXT Frame(CFA_SP, 3)
        CFI ?RET_HIGH Frame(CFA_SP, 2)
        CFI ?RET_LOW Frame(CFA_SP, 1)
        CFI EndCommon cfiCommon0
        
        
        CFI Common cfiCommon1 Using cfiNames0
        CFI CodeAlign 1
        CFI DataAlign -1
        CFI ReturnAddress ?RET CODE
        CFI CFA_DOVERLAY Used
        CFI CFA_IOVERLAY Used
        CFI CFA_SP SP+-2
        CFI CFA_PSP16 PSP16+0
        CFI CFA_XSP16 XSP16+0
        CFI `PSW.CY` SameValue
        CFI `B.BR0` SameValue
        CFI `B.BR1` SameValue
        CFI `B.BR2` SameValue
        CFI `B.BR3` SameValue
        CFI `B.BR4` SameValue
        CFI `B.BR5` SameValue
        CFI `B.BR6` SameValue
        CFI `B.BR7` SameValue
        CFI `VB.BR8` SameValue
        CFI `VB.BR9` SameValue
        CFI `VB.BR10` SameValue
        CFI `VB.BR11` SameValue
        CFI `VB.BR12` SameValue
        CFI `VB.BR13` SameValue
        CFI `VB.BR14` SameValue
        CFI `VB.BR15` SameValue
        CFI VB SameValue
        CFI B SameValue
        CFI A SameValue
        CFI PSW SameValue
        CFI DPL0 SameValue
        CFI DPH0 SameValue
        CFI R0 SameValue
        CFI R1 SameValue
        CFI R2 SameValue
        CFI R3 SameValue
        CFI R4 SameValue
        CFI R5 SameValue
        CFI R6 SameValue
        CFI R7 SameValue
        CFI V0 SameValue
        CFI V1 SameValue
        CFI V2 SameValue
        CFI V3 SameValue
        CFI V4 SameValue
        CFI V5 SameValue
        CFI V6 SameValue
        CFI V7 SameValue
        CFI V8 SameValue
        CFI V9 SameValue
        CFI V10 SameValue
        CFI V11 SameValue
        CFI V12 SameValue
        CFI V13 SameValue
        CFI V14 SameValue
        CFI V15 SameValue
        CFI PSPH Undefined
        CFI PSPL Undefined
        CFI XSPH Undefined
        CFI XSPL Undefined
        CFI ?RET Concat
        CFI ?BRET_EXT SameValue
        CFI ?RET_HIGH Frame(CFA_SP, 2)
        CFI ?RET_LOW Frame(CFA_SP, 1)
        CFI EndCommon cfiCommon1
        
Delay               SYMBOL "Delay"
??Delay?relay       SYMBOL "?relay", Delay
Feed_DOG            SYMBOL "Feed_DOG"
??Feed_DOG?relay    SYMBOL "?relay", Feed_DOG
Init_16MClock       SYMBOL "Init_16MClock"
??Init_16MClock?relay SYMBOL "?relay", Init_16MClock
Init_32MClock       SYMBOL "Init_32MClock"
??Init_32MClock?relay SYMBOL "?relay", Init_32MClock
Init_Timer1         SYMBOL "Init_Timer1"
??Init_Timer1?relay SYMBOL "?relay", Init_Timer1
Init_Uart0          SYMBOL "Init_Uart0"
??Init_Uart0?relay  SYMBOL "?relay", Init_Uart0
Init_WDT            SYMBOL "Init_WDT"
??Init_WDT?relay    SYMBOL "?relay", Init_WDT
init1s_WDT          SYMBOL "init1s_WDT"
??init1s_WDT?relay  SYMBOL "?relay", init1s_WDT
init_ADC            SYMBOL "init_ADC"
??init_ADC?relay    SYMBOL "?relay", init_ADC
init_btn            SYMBOL "init_btn"
??init_btn?relay    SYMBOL "?relay", init_btn
init_port           SYMBOL "init_port"
??init_port?relay   SYMBOL "?relay", init_port
led_check           SYMBOL "led_check"
??led_check?relay   SYMBOL "?relay", led_check

// C:\Texas Instruments\ZStack-CC2530-2.5.1a\Projects\zstack\Samples\GenericApp\Source\init.c
//    1 #include "ioCC2530.h"

        ASEGN SFR_AN:DATA:NOROOT,086H
// unsigned char volatile __sfr U0CSR
U0CSR:
        DATA8
        DS 1

        ASEGN SFR_AN:DATA:NOROOT,088H
// union <unnamed> volatile __sfr _A_TCON
_A_TCON:
        DATA8
        DS 1

        ASEGN SFR_AN:DATA:NOROOT,08cH
// unsigned char volatile __sfr PICTL
PICTL:
        DATA8
        DS 1

        ASEGN SFR_AN:DATA:NOROOT,08dH
// unsigned char volatile __sfr P1IEN
P1IEN:
        DATA8
        DS 1

        ASEGN SFR_AN:DATA:NOROOT,08fH
// unsigned char volatile __sfr P0INP
P0INP:
        DATA8
        DS 1

        ASEGN SFR_AN:DATA:NOROOT,090H
// union <unnamed> volatile __sfr _A_P1
_A_P1:
        DATA8
        DS 1

        ASEGN SFR_AN:DATA:NOROOT,09aH
// unsigned char volatile __sfr IEN2
IEN2:
        DATA8
        DS 1

        ASEGN SFR_AN:DATA:NOROOT,09eH
// unsigned char volatile __sfr CLKCONSTA
CLKCONSTA:
        DATA8
        DS 1

        ASEGN SFR_AN:DATA:NOROOT,0a8H
// union <unnamed> volatile __sfr _A_IEN0
_A_IEN0:
        DATA8
        DS 1

        ASEGN SFR_AN:DATA:NOROOT,0abH
// unsigned char volatile __sfr P0IEN
P0IEN:
        DATA8
        DS 1

        ASEGN SFR_AN:DATA:NOROOT,0b8H
// union <unnamed> volatile __sfr _A_IEN1
_A_IEN1:
        DATA8
        DS 1

        ASEGN SFR_AN:DATA:NOROOT,0c2H
// unsigned char volatile __sfr U0BAUD
U0BAUD:
        DATA8
        DS 1

        ASEGN SFR_AN:DATA:NOROOT,0c4H
// unsigned char volatile __sfr U0UCR
U0UCR:
        DATA8
        DS 1

        ASEGN SFR_AN:DATA:NOROOT,0c5H
// unsigned char volatile __sfr U0GCR
U0GCR:
        DATA8
        DS 1

        ASEGN SFR_AN:DATA:NOROOT,0c6H
// unsigned char volatile __sfr CLKCONCMD
CLKCONCMD:
        DATA8
        DS 1

        ASEGN SFR_AN:DATA:NOROOT,0c9H
// unsigned char volatile __sfr WDCTL
WDCTL:
        DATA8
        DS 1

        ASEGN SFR_AN:DATA:NOROOT,0daH
// unsigned char volatile __sfr T1CC0L
T1CC0L:
        DATA8
        DS 1

        ASEGN SFR_AN:DATA:NOROOT,0dbH
// unsigned char volatile __sfr T1CC0H
T1CC0H:
        DATA8
        DS 1

        ASEGN SFR_AN:DATA:NOROOT,0e4H
// unsigned char volatile __sfr T1CTL
T1CTL:
        DATA8
        DS 1

        ASEGN SFR_AN:DATA:NOROOT,0e5H
// unsigned char volatile __sfr T1CCTL0
T1CCTL0:
        DATA8
        DS 1

        ASEGN SFR_AN:DATA:NOROOT,0e8H
// union <unnamed> volatile __sfr _A_IRCON2
_A_IRCON2:
        DATA8
        DS 1

        ASEGN SFR_AN:DATA:NOROOT,0f1H
// unsigned char volatile __sfr PERCFG
PERCFG:
        DATA8
        DS 1

        ASEGN SFR_AN:DATA:NOROOT,0f2H
// unsigned char volatile __sfr APCFG
APCFG:
        DATA8
        DS 1

        ASEGN SFR_AN:DATA:NOROOT,0f3H
// unsigned char volatile __sfr P0SEL
P0SEL:
        DATA8
        DS 1

        ASEGN SFR_AN:DATA:NOROOT,0f4H
// unsigned char volatile __sfr P1SEL
P1SEL:
        DATA8
        DS 1

        ASEGN SFR_AN:DATA:NOROOT,0f6H
// unsigned char volatile __sfr P1INP
P1INP:
        DATA8
        DS 1

        ASEGN SFR_AN:DATA:NOROOT,0f7H
// unsigned char volatile __sfr P2INP
P2INP:
        DATA8
        DS 1

        ASEGN SFR_AN:DATA:NOROOT,0fdH
// unsigned char volatile __sfr P0DIR
P0DIR:
        DATA8
        DS 1

        ASEGN SFR_AN:DATA:NOROOT,0feH
// unsigned char volatile __sfr P1DIR
P1DIR:
        DATA8
        DS 1
//    2 #include "init.h"
//    3 //****输出端口初始化

        RSEG BANKED_CODE:CODE:NOROOT(0)
//    4 void init_port(){
init_port:
        CFI Block cfiBlock0 Using cfiCommon0
        CFI Function init_port
        CODE
        ; Saved register size: 0
        ; Auto size: 0
//    5   //初始化输出端口
//    6   //初始化LED灯的I/O端口
//    7   P1SEL &= ~0x1b;   //P1_0、P1_1、P1_3和P1_4作为通用I/O端口
        ANL     0xf4,#0xe4
//    8   P1DIR |= 0x1b;    //P1_0、P1_1、P1_3和P1_4端口输出
        ORL     0xfe,#0x1b
//    9   //关闭所有的LED灯
//   10   P1 &= ~0x1b;
        ANL     0x90,#0xe4
//   11   P1SEL &= ~0x04;     //P1_2作为通用I/O端口
        ANL     0xf4,#0xfb
//   12   P1DIR &= ~0x04;     //P1_2端口输入
        ANL     0xfe,#0xfb
//   13   P1INP &= ~0x04;     //P1_2设置为上拉/下拉模式
        ANL     0xf6,#0xfb
//   14   P2INP &= ~0x40;     //P1_2设置为上拉
        ANL     0xf7,#0xbf
//   15 
//   16   P0SEL &= ~0x02;     //P0_1作为通用I/O端口
        ANL     0xf3,#0xfd
//   17   P0DIR &= ~0x02;     //P0_1端口输入
        ANL     0xfd,#0xfd
//   18   P0INP &= ~0x02;     //P0_1设置为上拉/下拉模式
        ANL     0x8f,#0xfd
//   19   P2INP &= ~0x20;     //P0_1设置为上拉
        ANL     0xf7,#0xdf
//   20 }
        LJMP    ?BRET
        CFI EndBlock cfiBlock0
        REQUIRE P1SEL
        REQUIRE P1DIR
        REQUIRE _A_P1
        REQUIRE P1INP
        REQUIRE P2INP
        REQUIRE P0SEL
        REQUIRE P0DIR
        REQUIRE P0INP
//   21 //****中断 sw_1 sw_2 初始化

        RSEG BANKED_CODE:CODE:NOROOT(0)
//   22 void init_btn(int sta){ //设置上升沿还是下降沿  0是上升沿 1是下降沿
init_btn:
        CFI Block cfiBlock1 Using cfiCommon0
        CFI Function init_btn
        CODE
        ; Saved register size: 0
        ; Auto size: 0
//   23   //对SW1的中断使能
//   24   IEN2 |= 0x10;     //使能P1端口组外部中断（IEN2不能位操作）0001 0000
        ORL     0x9a,#0x10
//   25   P1IEN |= 0x04;    //使能P1_2引脚外部中断 0000 0100
        ORL     0x8d,#0x4
//   26   //对SW2的中断使能 0010 0000
//   27   IEN1 |= 0x20; //是P0端口组
        SETB    0xb8.5
//   28   P0IEN |= 0x02;  //0000 0010
        ORL     0xab,#0x2
//   29   if(sta){//下降沿触发
        MOV     A,R2
        ORL     A,R3
        JZ      ??init_btn_0
//   30     PICTL |= 0x02;   //配置P1_0到P1_3上升沿触发 0010
        ORL     0x8c,#0x2
//   31     PICTL |= 0X01; //设置上升沿触发
        ORL     0x8c,#0x1
        SJMP    ??init_btn_1
//   32   }else{//上升沿触发
//   33     PICTL &= ~0x02;   //配置P1_0到P1_3上升沿触发 0010
??init_btn_0:
        ANL     0x8c,#0xfd
//   34     PICTL &= ~0X01; //设置上升沿触发
        ANL     0x8c,#0xfe
        CFI EndBlock cfiBlock1
//   35   }
//   36   EA = 1;       //打开总中断
??init_btn_1:
        REQUIRE ?Subroutine0
        REQUIRE IEN2
        REQUIRE P1IEN
        REQUIRE _A_IEN1
        REQUIRE P0IEN
        REQUIRE PICTL
        REQUIRE _A_IEN0
        ; // Fall through to label ?Subroutine0
//   37 }

        RSEG BANKED_CODE:CODE:NOROOT(0)
?Subroutine0:
        CFI Block cfiBlock2 Using cfiCommon0
        CFI NoFunction
        SETB    0xa8.7
        LJMP    ?BRET
        CFI EndBlock cfiBlock2
//   38 // ****延时函数

        RSEG BANKED_CODE:CODE:NOROOT(0)
//   39 void Delay(unsigned int t)
Delay:
        CFI Block cfiBlock3 Using cfiCommon0
        CFI Function Delay
        CODE
//   40 {
        ; Saved register size: 0
        ; Auto size: 0
//   41   int i;
//   42   while(t--){
??Delay_0:
        MOV     A,R2
        MOV     R0,A
        MOV     A,R3
        MOV     R1,A
        MOV     A,R0
        ADD     A,#-0x1
        DEC     R2
        MOV     A,R1
        ADDC    A,#-0x1
        MOV     R3,A
        MOV     A,R0
        ORL     A,R1
        JNZ     ??Delay_0
//   43     for(i=0;i<255;i++);
//   44   }
//   45 }
        LJMP    ?BRET
        CFI EndBlock cfiBlock3

        RSEG BANKED_CODE:CODE:NOROOT(0)
//   46 void Init_WDT(int sta)
Init_WDT:
        CFI Block cfiBlock4 Using cfiCommon0
        CFI Function Init_WDT
        CODE
//   47 {
        ; Saved register size: 0
        ; Auto size: 0
//   48   if(sta){
        MOV     A,R2
        ORL     A,R3
        JZ      ??Init_WDT_0
//   49     WDCTL |= 0x0c;  //0000 1100
        ORL     0xc9,#0xc
//   50     IEN2 |= 0x20;  //开启看门狗中断
        ORL     0x9a,#0x20
//   51     EA = 1;//开启总中断
        SETB    0xa8.7
        SJMP    ??Init_WDT_1
//   52   }else{
//   53     WDCTL |= 0x08;  //看门狗模式 时间间隔为1s
??Init_WDT_0:
        ORL     0xc9,#0x8
//   54   }
//   55 }
??Init_WDT_1:
        LJMP    ?BRET
        CFI EndBlock cfiBlock4
        REQUIRE WDCTL
        REQUIRE IEN2
        REQUIRE _A_IEN0

        RSEG BANKED_CODE:CODE:NOROOT(0)
//   56 void Feed_DOG(){
Feed_DOG:
        CFI Block cfiBlock5 Using cfiCommon0
        CFI Function Feed_DOG
        CODE
        ; Saved register size: 0
        ; Auto size: 0
//   57   WDCTL = 0XA0;//1010
        MOV     0xc9,#-0x60
//   58   WDCTL = 0X50;//0101
        MOV     0xc9,#0x50
//   59 }
        LJMP    ?BRET
        CFI EndBlock cfiBlock5
        REQUIRE WDCTL

        RSEG BANKED_CODE:CODE:NOROOT(0)
//   60 void led_check(){
led_check:
        CFI Block cfiBlock6 Using cfiCommon0
        CFI Function led_check
        CODE
        FUNCALL led_check, Delay
        LOCFRAME ISTACK, 2, STACK
        LOCFRAME PSTACK, 0, STACK
        LOCFRAME XSTACK, 0, STACK
        LOCFRAME IOVERLAY, 0, STATIC
        LOCFRAME DOVERLAY, 0, STATIC
        ARGFRAME ISTACK, 2, STACK
        ARGFRAME PSTACK, 0, STACK
        ARGFRAME XSTACK, 0, STACK
        ARGFRAME IOVERLAY, 0, STATIC
        ARGFRAME DOVERLAY, 0, STATIC
        FUNCALL led_check, Delay
        LOCFRAME ISTACK, 2, STACK
        LOCFRAME PSTACK, 0, STACK
        LOCFRAME XSTACK, 0, STACK
        LOCFRAME IOVERLAY, 0, STATIC
        LOCFRAME DOVERLAY, 0, STATIC
        ARGFRAME ISTACK, 2, STACK
        ARGFRAME PSTACK, 0, STACK
        ARGFRAME XSTACK, 0, STACK
        ARGFRAME IOVERLAY, 0, STATIC
        ARGFRAME DOVERLAY, 0, STATIC
        FUNCALL led_check, Delay
        LOCFRAME ISTACK, 2, STACK
        LOCFRAME PSTACK, 0, STACK
        LOCFRAME XSTACK, 0, STACK
        LOCFRAME IOVERLAY, 0, STATIC
        LOCFRAME DOVERLAY, 0, STATIC
        ARGFRAME ISTACK, 2, STACK
        ARGFRAME PSTACK, 0, STACK
        ARGFRAME XSTACK, 0, STACK
        ARGFRAME IOVERLAY, 0, STATIC
        ARGFRAME DOVERLAY, 0, STATIC
        FUNCALL led_check, Delay
        LOCFRAME ISTACK, 2, STACK
        LOCFRAME PSTACK, 0, STACK
        LOCFRAME XSTACK, 0, STACK
        LOCFRAME IOVERLAY, 0, STATIC
        LOCFRAME DOVERLAY, 0, STATIC
        ARGFRAME ISTACK, 2, STACK
        ARGFRAME PSTACK, 0, STACK
        ARGFRAME XSTACK, 0, STACK
        ARGFRAME IOVERLAY, 0, STATIC
        ARGFRAME DOVERLAY, 0, STATIC
        PUSH    DPL
        CFI DPL0 Frame(CFA_SP, 4)
        CFI CFA_SP SP+-4
        PUSH    DPH
        CFI DPH0 Frame(CFA_SP, 5)
        CFI CFA_SP SP+-5
        ; Saved register size: 2
        ; Auto size: 0
//   61   D5=1;D6=0;D3=0;D4=0;
        SETB    0x90.3
        CLR     0x90.4
        CLR     0x90.0
        CLR     0x90.1
//   62   Delay(500);
        ; Setup parameters for call to function Delay
        MOV     R2,#-0xc
        MOV     R3,#0x1
        LCALL   ??Delay?relay
//   63   D5=0;D6=1;D3=0;D4=0;
        CLR     0x90.3
        SETB    0x90.4
        CLR     0x90.0
        CLR     0x90.1
//   64   Delay(500);
        ; Setup parameters for call to function Delay
        MOV     R2,#-0xc
        MOV     R3,#0x1
        LCALL   ??Delay?relay
//   65   D5=0;D6=0;D3=1;D4=0;
        CLR     0x90.3
        CLR     0x90.4
        SETB    0x90.0
        CLR     0x90.1
//   66   Delay(500);
        ; Setup parameters for call to function Delay
        LCALL   ?Subroutine1 & 0xFFFF
//   67   D5=0;D6=0;D3=0;D4=1;
??CrossCallReturnLabel_0:
        SETB    0x90.1
//   68   Delay(500);
        ; Setup parameters for call to function Delay
        LCALL   ?Subroutine1 & 0xFFFF
//   69   D5=0;D6=0;D3=0;D4=0;
??CrossCallReturnLabel_1:
        CLR     0x90.1
//   70 }
        POP     DPH
        CFI DPH0 SameValue
        CFI CFA_SP SP+-4
        POP     DPL
        CFI DPL0 SameValue
        CFI CFA_SP SP+-3
        LJMP    ?BRET
        CFI EndBlock cfiBlock6
        REQUIRE _A_P1

        RSEG BANKED_CODE:CODE:NOROOT(0)
?Subroutine1:
        CFI Block cfiCond7 Using cfiCommon0
        CFI NoFunction
        CFI Conditional ??CrossCallReturnLabel_0
        CFI DPL0 Frame(CFA_SP, 4)
        CFI DPH0 Frame(CFA_SP, 5)
        CFI CFA_SP SP+-5
        CFI Block cfiCond8 Using cfiCommon0
        CFI (cfiCond8) NoFunction
        CFI (cfiCond8) Conditional ??CrossCallReturnLabel_1
        CFI (cfiCond8) DPL0 Frame(CFA_SP, 4)
        CFI (cfiCond8) DPH0 Frame(CFA_SP, 5)
        CFI (cfiCond8) CFA_SP SP+-5
        CFI Block cfiPicker9 Using cfiCommon1
        CFI (cfiPicker9) NoFunction
        CFI (cfiPicker9) Picker
        MOV     R2,#-0xc
        MOV     R3,#0x1
        LCALL   ??Delay?relay
        CLR     0x90.3
        CLR     0x90.4
        CLR     0x90.0
        RET
        CFI EndBlock cfiCond7
        CFI EndBlock cfiCond8
        CFI EndBlock cfiPicker9

        RSEG BANKED_CODE:CODE:NOROOT(0)
//   71 void Init_32MClock(){
Init_32MClock:
        CFI Block cfiBlock10 Using cfiCommon0
        CFI Function Init_32MClock
        CODE
        ; Saved register size: 0
        ; Auto size: 0
//   72   //初始化时钟函数
//   73   CLKCONCMD &=~0x40;//0100 0000系统时钟设置为32M
        ANL     0xc6,#0xbf
//   74   while(CLKCONSTA&0x40); //等待时钟切换
??Init_32MClock_0:
        MOV     A,0x9e
        MOV     C,0xE0 /* A   */.6
        JC      ??Init_32MClock_0
//   75   CLKCONCMD &=~0x07;    //0000 0111当前时钟速率32M
        ANL     0xc6,#0xf8
//   76 }
        LJMP    ?BRET
        CFI EndBlock cfiBlock10
        REQUIRE CLKCONCMD
        REQUIRE CLKCONSTA

        RSEG BANKED_CODE:CODE:NOROOT(0)
//   77 void Init_16MClock(){
Init_16MClock:
        CFI Block cfiBlock11 Using cfiCommon0
        CFI Function Init_16MClock
        CODE
        ; Saved register size: 0
        ; Auto size: 0
//   78   //初始化时钟函数
//   79   CLKCONCMD |= 0x40;
        ORL     0xc6,#0x40
//   80   while(!(CLKCONSTA & 0x40));
??Init_16MClock_0:
        MOV     A,0x9e
        MOV     C,0xE0 /* A   */.6
        JNC     ??Init_16MClock_0
//   81   CLKCONCMD |= 0x01;
        ORL     0xc6,#0x1
//   82 }
        LJMP    ?BRET
        CFI EndBlock cfiBlock11
        REQUIRE CLKCONCMD
        REQUIRE CLKCONSTA
//   83 
//   84 /*======================初始化串口0函数=======================*/

        RSEG BANKED_CODE:CODE:NOROOT(0)
//   85 void Init_Uart0()
Init_Uart0:
        CFI Block cfiBlock12 Using cfiCommon0
        CFI Function Init_Uart0
        CODE
//   86 {
        ; Saved register size: 0
        ; Auto size: 0
//   87  //1-指定串口的IO位置；
//   88    PERCFG = 0x00;    //0000 0001 UART0,备用位置1
        MOV     0xf1,#0x0
//   89  //2-相应IO配置成片上外设功能；
//   90    P0SEL = 0x0C;   //0000 1100 P0_2,P0_3为片上外设
        MOV     0xf3,#0xc
//   91  //3-选择串口工作方式（异步UART模式，8个数据位、1个停止位、无流控、无校验确立）。
//   92    U0CSR |=0xc0;  //1100 0000 设置为UART模式，接收使能
        ORL     0x86,#0xc0
//   93    U0UCR |=0x80;  //1000 0000  当前为空闲状态
        ORL     0xc4,#0x80
//   94  //4-波特率；
//   95    U0GCR =8;
        MOV     0xc5,#0x8
//   96    U0BAUD =59;
        MOV     0xc2,#0x3b
//   97  //5-清除发送、接收标志位
//   98    UTX0IF =0;
        CLR     0xe8.1
//   99    URX0IF =0;
        CLR     0x88.3
//  100 //6-开CPU中断、对应串口接收中断；
//  101    URX0IE =1;//接收中断使能
        SETB    0xa8.2
//  102    EA=1;
        LJMP    ?Subroutine0 & 0xFFFF
        CFI EndBlock cfiBlock12
        REQUIRE PERCFG
        REQUIRE P0SEL
        REQUIRE U0CSR
        REQUIRE U0UCR
        REQUIRE U0GCR
        REQUIRE U0BAUD
        REQUIRE _A_IRCON2
        REQUIRE _A_TCON
        REQUIRE _A_IEN0
//  103 }
//  104 /*=====================定时器1初始化函数======================*/

        RSEG BANKED_CODE:CODE:NOROOT(0)
//  105 void Init_Timer1()
Init_Timer1:
        CFI Block cfiBlock13 Using cfiCommon0
        CFI Function Init_Timer1
        CODE
//  106 {
        ; Saved register size: 0
        ; Auto size: 0
//  107   T1CC0L = 0xd4;    //16MHz时钟128分频定时100ms 13
        MOV     0xda,#-0x2c
//  108   T1CC0H = 0x30;    //设先填低8位，再填高8位
        MOV     0xdb,#0x30
//  109   T1CCTL0 |= 0x04;  //开启通道0的输出比较模式
        ORL     0xe5,#0x4
//  110   // T1IE = 1;         //使能定时器1中断	时钟使能
//  111   // T1OVFIM = 1;      //使能定时器1溢出中断
//  112   // EA = 1;           //使能总中断
//  113   T1CTL = 0x0e;     //分频系数是128,模模式 0000 1110
        MOV     0xe4,#0xe
//  114 }
        LJMP    ?BRET
        CFI EndBlock cfiBlock13
        REQUIRE T1CC0L
        REQUIRE T1CC0H
        REQUIRE T1CCTL0
        REQUIRE T1CTL
//  115 

        RSEG BANKED_CODE:CODE:NOROOT(0)
//  116 void init_ADC() // adc初始化
init_ADC:
        CFI Block cfiBlock14 Using cfiCommon0
        CFI Function init_ADC
        CODE
//  117 {
        ; Saved register size: 0
        ; Auto size: 0
//  118   //1-P0设为模拟输入
//  119   APCFG |=0x01;  //0000 0001 P0_0模拟输入口，AD转换通道0
        ORL     0xf2,#0x1
//  120 }
        LJMP    ?BRET
        CFI EndBlock cfiBlock14
        REQUIRE APCFG
//  121 

        RSEG BANKED_CODE:CODE:NOROOT(0)
//  122 void init1s_WDT()//看门狗定时器初始化函数
init1s_WDT:
        CFI Block cfiBlock15 Using cfiCommon0
        CFI Function init1s_WDT
        CODE
//  123  {
        ; Saved register size: 0
        ; Auto size: 0
//  124    WDCTL |=0x0c;//0000 1100看门狗定时器功能，时间间隔为1S
        ORL     0xc9,#0xc
//  125 
//  126    //IEN2 |=0x20;//0010 0000开看门狗中断
//  127    //EA=1;
//  128  }
        LJMP    ?BRET
        CFI EndBlock cfiBlock15
        REQUIRE WDCTL

        RSEG BANK_RELAYS:CODE:REORDER:NOROOT(0)
??init_port?relay:
        LCALL   ?BDISPATCH
        DATA
        DC24    init_port

        RSEG BANK_RELAYS:CODE:REORDER:NOROOT(0)
??init_btn?relay:
        LCALL   ?BDISPATCH
        DATA
        DC24    init_btn

        RSEG BANK_RELAYS:CODE:REORDER:NOROOT(0)
??Delay?relay:
        LCALL   ?BDISPATCH
        DATA
        DC24    Delay

        RSEG BANK_RELAYS:CODE:REORDER:NOROOT(0)
??Init_WDT?relay:
        LCALL   ?BDISPATCH
        DATA
        DC24    Init_WDT

        RSEG BANK_RELAYS:CODE:REORDER:NOROOT(0)
??Feed_DOG?relay:
        LCALL   ?BDISPATCH
        DATA
        DC24    Feed_DOG

        RSEG BANK_RELAYS:CODE:REORDER:NOROOT(0)
??led_check?relay:
        LCALL   ?BDISPATCH
        DATA
        DC24    led_check

        RSEG BANK_RELAYS:CODE:REORDER:NOROOT(0)
??Init_32MClock?relay:
        LCALL   ?BDISPATCH
        DATA
        DC24    Init_32MClock

        RSEG BANK_RELAYS:CODE:REORDER:NOROOT(0)
??Init_16MClock?relay:
        LCALL   ?BDISPATCH
        DATA
        DC24    Init_16MClock

        RSEG BANK_RELAYS:CODE:REORDER:NOROOT(0)
??Init_Uart0?relay:
        LCALL   ?BDISPATCH
        DATA
        DC24    Init_Uart0

        RSEG BANK_RELAYS:CODE:REORDER:NOROOT(0)
??Init_Timer1?relay:
        LCALL   ?BDISPATCH
        DATA
        DC24    Init_Timer1

        RSEG BANK_RELAYS:CODE:REORDER:NOROOT(0)
??init_ADC?relay:
        LCALL   ?BDISPATCH
        DATA
        DC24    init_ADC

        RSEG BANK_RELAYS:CODE:REORDER:NOROOT(0)
??init1s_WDT?relay:
        LCALL   ?BDISPATCH
        DATA
        DC24    init1s_WDT

        END
// 
// 275 bytes in segment BANKED_CODE
//  72 bytes in segment BANK_RELAYS
//  29 bytes in segment SFR_AN
// 
// 347 bytes of CODE memory
//   0 bytes of DATA memory (+ 29 bytes shared)
//
//Errors: none
//Warnings: none
